(dp1
S'output'
p2
S"<type 'exceptions.ValueError'> invalid literal for long() with base 10: ''"
p3
sS'layer'
p4
S'D:\\backup servidor\\uli\\web2py\\web2py\\applications\\deteni2\\controllers/default.py'
p5
sS'code'
p6
S'\ndef index():\n    return dict()\n\ndef consulta1():\n    form=FORM(TABLE(TR("Ingresar el DNI a consultar:",INPUT(_type="integer",_name="dni",requires=IS_NOT_EMPTY())),\n                        \n                        TR("",INPUT(_type="submit",_value="Enviar"))))\n    if form.accepts(request.vars,session):\n        response.flash="formulario aceptado"\n        redirect(URL(\'proceso_consul1\', args=[form.vars.dni]))\n    elif form.errors:\n            response.flash="formulario inv\xc3\xa1lido"\n    else:\n        response.flash="por favor complete el formulario"\n    return dict(form=form)   \n\n\ndef proceso_consul1():\n    atrapa = request.args[0]\n    \n    consulta = (db.deteni2.dni==atrapa)\n    miset = db(consulta)\n    registros = miset.select()\n    \n\n\n\n\n    a = miset.count() \n\n    if a == 0:\n         redirect(URL(\'sin_dni\', args=[atrapa]))\n   \n    #query=db(db.deteni2.dni==atrapa).select().first()\n    #grid = SQLFORM.grid(query,deletable=False,paginate=20,sortable=True,editable=False,\n    #grid=SQLFORM.grid(db.deteni2.dni==atrapa)\n\n    \n\n\n\n    return dict(a=a, atrapa=atrapa, registros=registros)#,query=query,grid=grid)\ndef sin_dni():\n    atrapa= request.args[0]\n\n\n\n\n\n\n\n    \n    return dict(atrapa=atrapa)\n\n\n                                        \n                    \n\ndef deteni2():\n    from datetime import date\n    \n    atrapa=request.args[0]\n    db.deteni2.dni.default=request.args[0]\n\n    form = SQLFORM(db.deteni2)\n\n    \n    \n    \n    \n\n\n    \n    \n        \n      \n    if form.process().accepted:\n        \n    \n\n       \n\n\n      \n      \n      \n\n        \n        \n        response.flash = \'Formulario Aceptado\'\n        redirect(URL(c=\'default\', f=\'ingreso\',args=[form.vars.id]))\n    elif form.errors:\n        response.flash = \'El formulario es inv\xc3\xa1lido verifique\'\n    return dict(form=form)\n\n\ndef ingreso():\n    #creo botones modales\n    from modalplugins import Modal\n    from datetime import date\n    field = db.ingreso.delitos\n    field2 =db.ingreso.organismos\n    field1 = db.ingreso.comisaria\n    \n    modal = Modal(field, \'Agregar\', \'Agregar delito\', \'delitos\')\n    modal2 = Modal(field2,  \'Agregar\',  \'Agregar organismos\',\'organismos\')\n    modal1 = Modal(field1, \'Agregar\', \'Agregar comisaria\', \'comisaria\')\n  \n    db.ingreso.delitos.comment= modal.create()\n    db.ingreso.comisaria.comment = modal1.create()\n    db.ingreso.organismos.coment =modal2.create()\n\n\n    #atrapo el argumento id\n    atrapa =request.args[0]\n    consulta = (db.deteni2.id==atrapa)\n    miset = db(consulta)\n    registros = miset.select()\n    i=registros\n\n    \n    #atrapo el dia de hoy\n    ed=datetime.date.today()\n    edad=0\n    \n    \n\n    #capturo la fecha de nacimiento\n    for x in i:\n        fecha=x.fecha_naci\n    #calculo la edad\n    edad=(ed.year)-(fecha.year)\n    \n\n\n    \n\n    db.ingreso.persona.default = request.args[0] #-- Coloco el nombre de la agencia ya en el campo correspondiente\n\n\n    \n    form = SQLFORM(db.ingreso)\n    #realizo la consulta del id de la persona para mandar la edad\n    d=db(db.deteni2.id==atrapa).select().first()\n    \n    if form.process().accepted:\n        response.flash = \'Formulario Aceptado\'\n        \n\n        #envio la edad a la persona\n        d.update_record(edad=edad)\n        #actualizo el ultimo registro\n\n\n       \n        db.historial.insert(persona=atrapa,comisaria=form.vars.comisaria,organismos=form.vars.organismos,delitos=form.vars.delitos,comentario=form.vars.comentario,es=form.vars.es,calidad=form.vars.calidad,comentarios=form.vars.comentarios,horario=form.vars.horario)\n        \n        \n        redirect(URL(c=\'default\', f=\'index\'))\n\n\n        \n\n\n        \n         \n    \n    \n   \n\n\n\n\n\n\n    \n    return dict(form=form,ed=ed, atrapa=atrapa,miset=miset,registros=registros,consulta=consulta,i=i,x=x,fecha=fecha,edad=edad,d=d,formmodal=modal.formModal(), formmodal1=modal1.formModal(),formmodal2=modal2.formModal())\n\n\ndef proceso_consul2():\n    id_detenido = request.args[0]\n    atrapa =request.vars.dni\n    \n    consulta = (db.deteni2.dni==atrapa)\n    miset = db(consulta)\n    registros = miset.select()\n    for i in registros:\n        print i.id\n    \n    crud.settings.update_next = URL(f=\'index\', args=[atrapa])\n    form = crud.update(db.deteni2, id_detenido) #esto me permite  modificar un row pero antes hay importar un crud en db.py en gluon\n    if form.accepts(request.vars,session):\n        response.flash="formulario aceptado"\n\n        redirect(URL(\'proceso_consul1\', args=[form.vars.persona, request.args[1]]))\n    \n    \n\n\n    return dict(atrapa=atrapa,consulta=consulta,registros=registros,miset=miset, form=form)\n\ndef nuevas_dependencias():\n\n        \n    return dict()\ndef nueva_comisaria():\n    form = SQLFORM(db.dependencias_polciales)\n    if form.process().accepted:\n        response.flash = \'Formulario Aceptado\'\n        redirect(URL(c=\'default\', f=\'index\'))\n\n        \n    \n\n    return dict(form=form)\ndef nueva_judicial():\n    form = SQLFORM(db.dependencias_organismos)\n    if form.process().accepted:\n        response.flash = \'Formulario Aceptado\'\n        redirect(URL(c=\'default\', f=\'index\'))\n\n\n    return dict(form=form)\n    \ndef nuevos_delitos():\n    form = SQLFORM(db.delito)\n    if form.process().accepted:\n        response.flash = \'Formulario Aceptado\'\n        redirect(URL(c=\'default\', f=\'index\'))\n    return dict(form=form)\n\n\n\n\n    \n\n\n\ndef nuevas_dep_pol():\n    form = SQLFORM(db.dependencias_polciales)\n    if form.process().accepted:\n        response.flash = \'Formulario Aceptado\'\n    elif form.errors:\n        response.flash = \'El formulario es inv\xc3\xa1lido verifique\'\n    return dict(form=form)\n\ndef nuevas_dep_judi():\n    form = SQLFORM(db.dependencias_organismos)\n    if form.process().accepted:\n        response.flash = \'Formulario Aceptado\'\n    elif form.errors:\n        response.flash = \'El formulario es inv\xc3\xa1lido verifique\'\n    return dict(form=form)\n    \ndef nuevos_delitos():\n    form = SQLFORM(db.delito)\n    if form.process().accepted:\n        response.flash = \'Formulario Aceptado\'\n    elif form.errors:\n        response.flash = \'El formulario es inv\xc3\xa1lido verifique\'\n    return dict(form=form)\n\n \n\n\n\n\n\n\ndef proceso_consul3():\n    atrapa = request.args[0]\n    query=db(db.deteni2.dni==atrapa).select().first()\n    \n    consulta = (db.deteni2.dni==atrapa)\n    miset = db(consulta)\n    registros = miset.select()\n    \n\n\n\n\n    a = miset.count() \n    if a == 0:\n\n    #if a == 0:\n        #redirect(URL(\'sin_dni\', args=[atrapa]))\n    \n        redirect(URL(\'sin_dni\', args=[atrapa]))\n        \n        \n\n\n    #query=db((db.ingreso.es != "salida")&(db.ingreso.calidad != "LIBERTAD"))#&(db.ingreso.horario==hora_max))\n    \n\n    \n    #grid = SQLFORM.grid(query,deletable=False,paginate=20,sortable=True,editable=False,orderby=[db.ingreso.horario,db.ingreso.persona],\n        #links=[lambda r: editar_expediente(r)])\n\n\n   \n\n    return dict(query=query,miset=miset,a=a,consulta=consulta,atrapa=atrapa,registros=registros,grid=grid)\n\n\n\n\ndef sin2_dni():\n    atrapa=request.args[0]\n    redirect(URL(\'ingreso\', args=[atrapa]))\n\n\n    \n    \n        \n  \n\n       \n   \n     \n \n   \n    return dict(atrapa=atrapa) \n\n\n\ndef consulta():\n    #import datetime\n    #v=db(db.ingreso).select()\n    #nada=nada,nada,nada\n    #hora_max = datetime.datetime(2000, 1, 2, 20, 30)\n\n    #for z in v:\n    #    if z.persona != nada\n     #       nada= z.persona\n     #   elif x.horario>=hora_max:\n     #       hora_max = x.horario\n\n\n    \n    #for x in v:\n       \n        #if x.horario>=hora_max:\n           # hora_max = x.horario\n    \n\n\n    query=db((db.ingreso.es != "salida")&(db.ingreso.calidad != "LIBERTAD"))#&(db.ingreso.horario==hora_max))\n    \n\n    \n    grid = SQLFORM.grid(query,deletable=False,paginate=20,sortable=True,editable=False,orderby=[db.ingreso.horario,db.ingreso.persona],\n        links=[lambda r: editar_expediente(r)])\n    return locals()\n\n#grid = SQLFORM.grid(query, search_widget=search_form,user_signature=False,searchable=False,deletable=False,editable=False,details=False,selectable=None,orderby=[db.detencion.fecha_detencion],\n   # create=False,csv=False,links=[lambda r: editar_datos2(r)],maxtextlength=100,headers={\'detencion.fecha_detencion\':\'Fecha de Detenci\xc3\xb3n\',\'detencion.ordenado_por\':\'Ordenado por\',\'detencion.obs\':\'Observaciones\'}) \n\n    \n    \n\n    \n    \n\n        \n    \n\n    return dict(grid=grid,query=query)#hora_max=hora_max)\n\ndef historial():\n    \n\n    grid = SQLFORM.smartgrid(db.deteni2, linked_tables=[\'historial\'],deletable=False,paginate=10,editable=False,upload=\'<default>\')\n    return locals()\n\n\n\n\n    \n\n    \n    return dict(grid=grid)\n#agregar boton al grid\n#creando el boton    \ndef editar_expediente(row):\n        btn = A(I(_class=\'icon-thumbs-up\'),\n                    \' CAMBIAR ESTADO\',\n                    _href=URL(c=\'default\', f=\'libertad\', args=[row.id]),\n                    _class=\'btn btn-primary\')\n        return btn     \ndef libertad():\n     #atrapo argumento\n    atrapa =request.args[0]\n\n    #saco los datos para cargar los datos que necesito\n    v = db(db.ingreso.id == atrapa).select(db.ingreso.ALL)\n    for a in v: \n        p=a.persona\n        c=a.comisaria\n        o=a.organismos\n        d=a.delitos\n        co=a.comentario\n        es=a.es\n        ca=a.calidad\n        cos=a.comentarios\n        ho=a.horario    \n\n\n\n        \n\n\n       \n\n\n \n            \n    \n    \n    \n\n\n   \n\n        #cologo con valores rescatados en los campos del formulario\n        db.ingreso.persona.default = p         #-- Coloco el nombre de la agencia ya en el campo correspondiente\n        db.ingreso.comisaria.default = c\n        db.ingreso.organismos.default = o\n        db.ingreso.delitos.default = d\n        db.ingreso.comentario.default= co\n        \n        db.ingreso.calidad.default = ca\n\n        \n        \n\n        \n        \n\n\n        \n\n\n        \n\n\n\n\n    \n    \n    \n    \n    \n  \n  \n   \n\n    \n    \n    #re\n\n    \n    registro = db(db.ingreso.id==atrapa).select().first() or redirect(URL(\'index\'))\n\n\n   \n   \n    form=SQLFORM(db.ingreso,registro)\n\n    \n\n\n\n\n   \n\n\n\n    z=db(db.ingreso.id==atrapa).select().first()\n    \n    \n    \n    if form.process().accepted:\n        response.flash = \'Formulario Aceptado\'\n\n        \n\n        \n        \n        #z.update_record(comisaria=form.vars.comisaria,organismos=form.vars.organismos,comentario=form.vars.comentario,es=form.vars.es,calidad=form.vars.calidad,horario=form.vars.horario)\n        \n        db.historial.insert(persona=p,comisaria=form.vars.comisaria,\n                            organismos=form.vars.organismos,\n                            comentario=form.vars.comentario,\n                            es=form.vars.es,calidad=form.vars.calidad,\n                            horario=form.vars.horario,trasladado=form.vars.trasladado)\n            \n        \n         \n\n\n        redirect(URL(\'index\'))\n\n    \n\n        \n        \n    elif form.errors:\n        response.flash = \'El formulario es inv\xc3\xa1lido verifique\'   \n                               \n                 \n                                  \n         \n    return dict(form=form,atrapa=atrapa,v=v,a=a,p=p,c=c,o=o,es=es,ca=ca,cos=cos,ho=ho,d=d,z=z,registro=registro)\n\n\n    \n\n    \n\n\n\n\n        \n    \n    \n   \n    \n\n    \n    \n\n    \n    \n    \n\n\n\n\nresponse._vars=response._caller(historial)\n'
p7
sS'snapshot'
p8
(dp9
S'exception'
p10
(dp11
S'__hash__'
p12
S"<method-wrapper '__hash__' of exceptions.ValueError object>"
p13
sS'__setattr__'
p14
S"<method-wrapper '__setattr__' of exceptions.ValueError object>"
p15
sS'__reduce_ex__'
p16
S'<built-in method __reduce_ex__ of exceptions.ValueError object>'
p17
sS'__getslice__'
p18
S"<method-wrapper '__getslice__' of exceptions.ValueError object>"
p19
sS'__getitem__'
p20
S"<method-wrapper '__getitem__' of exceptions.ValueError object>"
p21
sS'__setstate__'
p22
S'<built-in method __setstate__ of exceptions.ValueError object>'
p23
sS'__reduce__'
p24
S'<built-in method __reduce__ of exceptions.ValueError object>'
p25
sS'__str__'
p26
S"<method-wrapper '__str__' of exceptions.ValueError object>"
p27
sS'__format__'
p28
S'<built-in method __format__ of exceptions.ValueError object>'
p29
sS'__getattribute__'
p30
S"<method-wrapper '__getattribute__' of exceptions.ValueError object>"
p31
sS'__class__'
p32
S"<type 'exceptions.ValueError'>"
p33
sS'__unicode__'
p34
S'<built-in method __unicode__ of exceptions.ValueError object>'
p35
sS'__delattr__'
p36
S"<method-wrapper '__delattr__' of exceptions.ValueError object>"
p37
sS'__subclasshook__'
p38
S'<built-in method __subclasshook__ of type object>'
p39
sS'__repr__'
p40
S"<method-wrapper '__repr__' of exceptions.ValueError object>"
p41
sS'args'
p42
S'("invalid literal for long() with base 10: \'\'",)'
p43
sS'__dict__'
p44
S'{}'
p45
sS'__sizeof__'
p46
S'<built-in method __sizeof__ of exceptions.ValueError object>'
p47
sS'__doc__'
p48
S"'Inappropriate argument value (of correct type).'"
p49
sS'__init__'
p50
S"<method-wrapper '__init__' of exceptions.ValueError object>"
p51
sS'__new__'
p52
S'<built-in method __new__ of type object>'
p53
ssS'evalue'
p54
S"invalid literal for long() with base 10: ''"
p55
sS'request'
p56
cgluon.html
XML_unpickle
p57
(S's\\X\x00\x00<div><table><tr><td style="font-weight:bold;vertical-align:top;">ajax</td><td style="vertical-align:top;">:</td><td><div>False</div></td></tr><tr><td style="font-weight:bold;vertical-align:top;">application</td><td style="vertical-align:top;">:</td><td><div>deteni2</div></td></tr><tr><td style="font-weight:bold;vertical-align:top;">args</td><td style="vertical-align:top;">:</td><td><div><table><tr><td><div>deteni2</div></td></tr><tr><td><div>historial.persona</div></td></tr><tr><td><div>3</div></td></tr></table></div></td></tr><tr><td style="font-weight:bold;vertical-align:top;">cid</td><td style="vertical-align:top;">:</td><td><div>None</div></td></tr><tr><td style="font-weight:bold;vertical-align:top;">client</td><td style="vertical-align:top;">:</td><td><div>127.0.0.1</div></td></tr><tr><td style="font-weight:bold;vertical-align:top;">controller</td><td style="vertical-align:top;">:</td><td><div>default</div></td></tr><tr><td style="font-weight:bold;vertical-align:top;">cookies</td><td style="vertical-align:top;">:</td><td><div><table><tr><td style="font-weight:bold;vertical-align:top;">session_id_admin</td><td style="vertical-align:top;">:</td><td><div>127.0.0.1-74a11ed1-b674-4e5f-9a4c-1d0f9b8da535<table><tr><td style="font-weight:bold;vertical-align:top;">comment</td><td style="vertical-align:top;">:</td><td><div></div></td></tr><tr><td style="font-weight:bold;vertical-align:top;">domain</td><td style="vertical-align:top;">:</td><td><div></div></td></tr><tr><td style="font-weight:bold;vertical-align:top;">expires</td><td style="vertical-align:top;">:</td><td><div></div></td></tr><tr><td style="font-weight:bold;vertical-align:top;">httponly</td><td style="vertical-align:top;">:</td><td><div></div></td></tr><tr><td style="font-weight:bold;vertical-align:top;">max-age</td><td style="vertical-align:top;">:</td><td><div></div></td></tr><tr><td style="font-weight:bold;vertical-align:top;">path</td><td style="vertical-align:top;">:</td><td><div></div></td></tr><tr><td style="font-weight:bold;vertical-align:top;">secure</td><td style="vertical-align:top;">:</td><td><div></div></td></tr><tr><td style="font-weight:bold;vertical-align:top;">version</td><td style="vertical-align:top;">:</td><td><div></div></td></tr></table></div></td></tr><tr><td style="font-weight:bold;vertical-align:top;">session_id_deteni2</td><td style="vertical-align:top;">:</td><td><div>127.0.0.1-0ebac227-a664-48db-984b-3f443a1a1b82<table><tr><td style="font-weight:bold;vertical-align:top;">comment</td><td style="vertical-align:top;">:</td><td><div></div></td></tr><tr><td style="font-weight:bold;vertical-align:top;">domain</td><td style="vertical-align:top;">:</td><td><div></div></td></tr><tr><td style="font-weight:bold;vertical-align:top;">expires</td><td style="vertical-align:top;">:</td><td><div></div></td></tr><tr><td style="font-weight:bold;vertical-align:top;">httponly</td><td style="vertical-align:top;">:</td><td><div></div></td></tr><tr><td style="font-weight:bold;vertical-align:top;">max-age</td><td style="vertical-align:top;">:</td><td><div></div></td></tr><tr><td style="font-weight:bold;vertical-align:top;">path</td><td style="vertical-align:top;">:</td><td><div></div></td></tr><tr><td style="font-weight:bold;vertical-align:top;">secure</td><td style="vertical-align:top;">:</td><td><div></div></td></tr><tr><td style="font-weight:bold;vertical-align:top;">version</td><td style="vertical-align:top;">:</td><td><div></div></td></tr></table></div></td></tr></table></div></td></tr><tr><td style="font-weight:bold;vertical-align:top;">env</td><td style="vertical-align:top;">:</td><td><div><table><tr><td style="font-weight:bold;vertical-align:top;">HTTP_ACCEPT</td><td style="vertical-align:top;">:</td><td><div>text/html,application/xhtml+xml,application/xml;q=0.9,*/*;q=0.8</div></td></tr><tr><td style="font-weight:bold;vertical-align:top;">HTTP_ACCEPT_ENCODING</td><td style="vertical-align:top;">:</td><td><div>gzip, deflate</div></td></tr><tr><td style="font-weight:bold;vertical-align:top;">HTTP_ACCEPT_LANGUAGE</td><td style="vertical-align:top;">:</td><td><div>es-ES,es;q=0.8,en-US;q=0.5,en;q=0.3</div></td></tr><tr><td style="font-weight:bold;vertical-align:top;">HTTP_CONNECTION</td><td style="vertical-align:top;">:</td><td><div>keep-alive</div></td></tr><tr><td style="font-weight:bold;vertical-align:top;">HTTP_COOKIE</td><td style="vertical-align:top;">:</td><td><div>session_id_deteni2=127.0.0.1-0ebac227-a664-48db-984b-3f443a1a1b82; session_id_admin=127.0.0.1-74a11ed1-b674-4e5f-9a4c-1d0f9b8da535</div></td></tr><tr><td style="font-weight:bold;vertical-align:top;">HTTP_DNT</td><td style="vertical-align:top;">:</td><td><div>1</div></td></tr><tr><td style="font-weight:bold;vertical-align:top;">HTTP_HOST</td><td style="vertical-align:top;">:</td><td><div>127.0.0.1:8000</div></td></tr><tr><td style="font-weight:bold;vertical-align:top;">HTTP_REFERER</td><td style="vertical-align:top;">:</td><td><div>http://127.0.0.1:8000/deteni2/default/historial</div></td></tr><tr><td style="font-weight:bold;vertical-align:top;">HTTP_UPGRADE_INSECURE_REQUESTS</td><td style="vertical-align:top;">:</td><td><div>1</div></td></tr><tr><td style="font-weight:bold;vertical-align:top;">HTTP_USER_AGENT</td><td style="vertical-align:top;">:</td><td><div>Mozilla/5.0 (Windows NT 6.1; rv:50.0) Gecko/20100101 Firefox/50.0</div></td></tr><tr><td style="font-weight:bold;vertical-align:top;">PATH_INFO</td><td style="vertical-align:top;">:</td><td><div>/deteni2/default/historial/deteni2/historial.persona/3</div></td></tr><tr><td style="font-weight:bold;vertical-align:top;">QUERY_STRING</td><td style="vertical-align:top;">:</td><td><div></div></td></tr><tr><td style="font-weight:bold;vertical-align:top;">REMOTE_ADDR</td><td style="vertical-align:top;">:</td><td><div>127.0.0.1</div></td></tr><tr><td style="font-weight:bold;vertical-align:top;">REMOTE_PORT</td><td style="vertical-align:top;">:</td><td><div>3643</div></td></tr><tr><td style="font-weight:bold;vertical-align:top;">REQUEST_METHOD</td><td style="vertical-align:top;">:</td><td><div>GET</div></td></tr><tr><td style="font-weight:bold;vertical-align:top;">SCRIPT_NAME</td><td style="vertical-align:top;">:</td><td><div></div></td></tr><tr><td style="font-weight:bold;vertical-align:top;">SERVER_NAME</td><td style="vertical-align:top;">:</td><td><div>Policia-PC</div></td></tr><tr><td style="font-weight:bold;vertical-align:top;">SERVER_PORT</td><td style="vertical-align:top;">:</td><td><div>8000</div></td></tr><tr><td style="font-weight:bold;vertical-align:top;">SERVER_PROTOCOL</td><td style="vertical-align:top;">:</td><td><div>HTTP/1.1</div></td></tr><tr><td style="font-weight:bold;vertical-align:top;">SERVER_SOFTWARE</td><td style="vertical-align:top;">:</td><td><div>Rocket 1.2.6</div></td></tr><tr><td style="font-weight:bold;vertical-align:top;">app_folders</td><td style="vertical-align:top;">:</td><td><div>set([&#x27;D:\\\\backup servidor\\\\uli\\\\web2py\\\\web2py\\\\applications\\\\admin\\\\&#x27;, &#x27;D:\\\\backup servidor\\\\uli\\\\web2py\\\\web2py\\\\applications\\\\deteni2\\\\&#x27;])</div></td></tr><tr><td style="font-weight:bold;vertical-align:top;">applications_parent</td><td style="vertical-align:top;">:</td><td><div>D:\\backup servidor\\uli\\web2py\\web2py</div></td></tr><tr><td style="font-weight:bold;vertical-align:top;">cmd_args</td><td style="vertical-align:top;">:</td><td><div><table></table></div></td></tr><tr><td style="font-weight:bold;vertical-align:top;">cmd_options</td><td style="vertical-align:top;">:</td><td><div>&lt;Values at 0x24e5eb8: {&#x27;verbose&#x27;: False, &#x27;ip&#x27;: &#x27;127.0.0.1&#x27;, &#x27;debuglevel&#x27;: 30, &#x27;with_scheduler&#x27;: False, &#x27;shutdown_timeout&#x27;: 5, &#x27;taskbar&#x27;: False, &#x27;with_coverage&#x27;: False, &#x27;pid_filename&#x27;: &#x27;httpserver.pid&#x27;, &#x27;maxthreads&#x27;: None, &#x27;softcron&#x27;: False, &#x27;server_name&#x27;: &#x27;Policia-PC&#x27;, &#x27;bpython&#x27;: False, &#x27;nogui&#x27;: False, &#x27;port&#x27;: 8000, &#x27;print_errors&#x27;: False, &#x27;extcron&#x27;: False, &#x27;runcron&#x27;: False, &#x27;run_system_tests&#x27;: False, &#x27;test&#x27;: None, &#x27;folder&#x27;: &#x27;D:\\\\backup servidor\\\\uli\\\\web2py\\\\web2py&#x27;, &#x27;config&#x27;: &#x27;&#x27;, &#x27;minthreads&#x27;: None, &#x27;shell&#x27;: None, &#x27;run&#x27;: &#x27;&#x27;, &#x27;log_filename&#x27;: &#x27;httpserver.log&#x27;, &#x27;profiler_dir&#x27;: None, &#x27;args&#x27;: [&#x27;&#x27;], &#x27;socket_timeout&#x27;: 5, &#x27;ssl_ca_certificate&#x27;: None, &#x27;scheduler&#x27;: None, &#x27;interfaces&#x27;: None, &#x27;ssl_private_key&#x27;: &#x27;&#x27;, &#x27;gae&#x27;: None, &#x27;password&#x27;: &#x27;******&#x27;, &#x27;request_queue_size&#x27;: 5, &#x27;ssl_certificate&#x27;: &#x27;&#x27;, &#x27;cronjob&#x27;: False, &#x27;numthreads&#x27;: None, &#x27;quiet&#x27;: False, &#x27;import_models&#x27;: False, &#x27;timeout&#x27;: 10, &#x27;plain&#x27;: False, &#x27;nobanner&#x27;: False}&gt;</div></td></tr><tr><td style="font-weight:bold;vertical-align:top;">db_sessions</td><td style="vertical-align:top;">:</td><td><div>set([])</div></td></tr><tr><td style="font-weight:bold;vertical-align:top;">debugging</td><td style="vertical-align:top;">:</td><td><div>False</div></td></tr><tr><td style="font-weight:bold;vertical-align:top;">gluon_parent</td><td style="vertical-align:top;">:</td><td><div>D:\\backup servidor\\uli\\web2py\\web2py</div></td></tr><tr><td style="font-weight:bold;vertical-align:top;">http_accept</td><td style="vertical-align:top;">:</td><td><div>text/html,application/xhtml+xml,application/xml;q=0.9,*/*;q=0.8</div></td></tr><tr><td style="font-weight:bold;vertical-align:top;">http_accept_encoding</td><td style="vertical-align:top;">:</td><td><div>gzip, deflate</div></td></tr><tr><td style="font-weight:bold;vertical-align:top;">http_accept_language</td><td style="vertical-align:top;">:</td><td><div>es-ES,es;q=0.8,en-US;q=0.5,en;q=0.3</div></td></tr><tr><td style="font-weight:bold;vertical-align:top;">http_connection</td><td style="vertical-align:top;">:</td><td><div>keep-alive</div></td></tr><tr><td style="font-weight:bold;vertical-align:top;">http_cookie</td><td style="vertical-align:top;">:</td><td><div>session_id_deteni2=127.0.0.1-0ebac227-a664-48db-984b-3f443a1a1b82; session_id_admin=127.0.0.1-74a11ed1-b674-4e5f-9a4c-1d0f9b8da535</div></td></tr><tr><td style="font-weight:bold;vertical-align:top;">http_dnt</td><td style="vertical-align:top;">:</td><td><div>1</div></td></tr><tr><td style="font-weight:bold;vertical-align:top;">http_host</td><td style="vertical-align:top;">:</td><td><div>127.0.0.1:8000</div></td></tr><tr><td style="font-weight:bold;vertical-align:top;">http_referer</td><td style="vertical-align:top;">:</td><td><div>http://127.0.0.1:8000/deteni2/default/historial</div></td></tr><tr><td style="font-weight:bold;vertical-align:top;">http_upgrade_insecure_requests</td><td style="vertical-align:top;">:</td><td><div>1</div></td></tr><tr><td style="font-weight:bold;vertical-align:top;">http_user_agent</td><td style="vertical-align:top;">:</td><td><div>Mozilla/5.0 (Windows NT 6.1; rv:50.0) Gecko/20100101 Firefox/50.0</div></td></tr><tr><td style="font-weight:bold;vertical-align:top;">is_jython</td><td style="vertical-align:top;">:</td><td><div>False</div></td></tr><tr><td style="font-weight:bold;vertical-align:top;">is_pypy</td><td style="vertical-align:top;">:</td><td><div>False</div></td></tr><tr><td style="font-weight:bold;vertical-align:top;">is_source</td><td style="vertical-align:top;">:</td><td><div>False</div></td></tr><tr><td style="font-weight:bold;vertical-align:top;">local_hosts</td><td style="vertical-align:top;">:</td><td><div><table><tr><td><div>fe80::519f:8c80:275f:a5cd%11</div></td></tr><tr><td><div>10.20.0.89</div></td></tr><tr><td><div>::ffff:127.0.0.1</div></td></tr><tr><td><div>::1</div></td></tr><tr><td><div>Policia-PC</div></td></tr><tr><td><div>127.0.0.1</div></td></tr></table></div></td></tr><tr><td style="font-weight:bold;vertical-align:top;">path_info</td><td style="vertical-align:top;">:</td><td><div>/deteni2/default/historial/deteni2/historial.persona/3</div></td></tr><tr><td style="font-weight:bold;vertical-align:top;">query_string</td><td style="vertical-align:top;">:</td><td><div></div></td></tr><tr><td style="font-weight:bold;vertical-align:top;">remote_addr</td><td style="vertical-align:top;">:</td><td><div>127.0.0.1</div></td></tr><tr><td style="font-weight:bold;vertical-align:top;">remote_port</td><td style="vertical-align:top;">:</td><td><div>3643</div></td></tr><tr><td style="font-weight:bold;vertical-align:top;">request_method</td><td style="vertical-align:top;">:</td><td><div>GET</div></td></tr><tr><td style="font-weight:bold;vertical-align:top;">request_uri</td><td style="vertical-align:top;">:</td><td><div>/deteni2/default/historial/deteni2/historial.persona/3</div></td></tr><tr><td style="font-weight:bold;vertical-align:top;">script_name</td><td style="vertical-align:top;">:</td><td><div></div></td></tr><tr><td style="font-weight:bold;vertical-align:top;">server_name</td><td style="vertical-align:top;">:</td><td><div>Policia-PC</div></td></tr><tr><td style="font-weight:bold;vertical-align:top;">server_port</td><td style="vertical-align:top;">:</td><td><div>8000</div></td></tr><tr><td style="font-weight:bold;vertical-align:top;">server_protocol</td><td style="vertical-align:top;">:</td><td><div>HTTP/1.1</div></td></tr><tr><td style="font-weight:bold;vertical-align:top;">server_software</td><td style="vertical-align:top;">:</td><td><div>Rocket 1.2.6</div></td></tr><tr><td style="font-weight:bold;vertical-align:top;">web2py_path</td><td style="vertical-align:top;">:</td><td><div>D:\\backup servidor\\uli\\web2py\\web2py</div></td></tr><tr><td style="font-weight:bold;vertical-align:top;">web2py_version</td><td style="vertical-align:top;">:</td><td><div>2.14.6-stable+timestamp.2016.05.10.00.21.47</div></td></tr><tr><td style="font-weight:bold;vertical-align:top;">wsgi.errors</td><td style="vertical-align:top;">:</td><td><div>&lt;open file &#x27;&lt;stderr&gt;&#x27;, mode &#x27;w&#x27; at 0x0123D0D0&gt;</div></td></tr><tr><td style="font-weight:bold;vertical-align:top;">wsgi.file_wrapper</td><td style="vertical-align:top;">:</td><td><div>&lt;class wsgiref.util.FileWrapper at 0x027AB0D8&gt;</div></td></tr><tr><td style="font-weight:bold;vertical-align:top;">wsgi.input</td><td style="vertical-align:top;">:</td><td><div>&lt;socket._fileobject object at 0x075A4970&gt;</div></td></tr><tr><td style="font-weight:bold;vertical-align:top;">wsgi.multiprocess</td><td style="vertical-align:top;">:</td><td><div>False</div></td></tr><tr><td style="font-weight:bold;vertical-align:top;">wsgi.multithread</td><td style="vertical-align:top;">:</td><td><div>True</div></td></tr><tr><td style="font-weight:bold;vertical-align:top;">wsgi.run_once</td><td style="vertical-align:top;">:</td><td><div>False</div></td></tr><tr><td style="font-weight:bold;vertical-align:top;">wsgi.url_scheme</td><td style="vertical-align:top;">:</td><td><div>http</div></td></tr><tr><td style="font-weight:bold;vertical-align:top;">wsgi.version</td><td style="vertical-align:top;">:</td><td><div><table><tr><td><div>1</div></td></tr><tr><td><div>0</div></td></tr></table></div></td></tr><tr><td style="font-weight:bold;vertical-align:top;">wsgi_errors</td><td style="vertical-align:top;">:</td><td><div>&lt;open file &#x27;&lt;stderr&gt;&#x27;, mode &#x27;w&#x27; at 0x0123D0D0&gt;</div></td></tr><tr><td style="font-weight:bold;vertical-align:top;">wsgi_file_wrapper</td><td style="vertical-align:top;">:</td><td><div>&lt;class wsgiref.util.FileWrapper at 0x027AB0D8&gt;</div></td></tr><tr><td style="font-weight:bold;vertical-align:top;">wsgi_input</td><td style="vertical-align:top;">:</td><td><div>&lt;socket._fileobject object at 0x075A4970&gt;</div></td></tr><tr><td style="font-weight:bold;vertical-align:top;">wsgi_multiprocess</td><td style="vertical-align:top;">:</td><td><div>False</div></td></tr><tr><td style="font-weight:bold;vertical-align:top;">wsgi_multithread</td><td style="vertical-align:top;">:</td><td><div>True</div></td></tr><tr><td style="font-weight:bold;vertical-align:top;">wsgi_run_once</td><td style="vertical-align:top;">:</td><td><div>False</div></td></tr><tr><td style="font-weight:bold;vertical-align:top;">wsgi_url_scheme</td><td style="vertical-align:top;">:</td><td><div>http</div></td></tr><tr><td style="font-weight:bold;vertical-align:top;">wsgi_version</td><td style="vertical-align:top;">:</td><td><div><table><tr><td><div>1</div></td></tr><tr><td><div>0</div></td></tr></table></div></td></tr></table></div></td></tr><tr><td style="font-weight:bold;vertical-align:top;">extension</td><td style="vertical-align:top;">:</td><td><div>html</div></td></tr><tr><td style="font-weight:bold;vertical-align:top;">folder</td><td style="vertical-align:top;">:</td><td><div>D:\\backup servidor\\uli\\web2py\\web2py\\applications\\deteni2\\</div></td></tr><tr><td style="font-weight:bold;vertical-align:top;">function</td><td style="vertical-align:top;">:</td><td><div>historial</div></td></tr><tr><td style="font-weight:bold;vertical-align:top;">global_settings</td><td style="vertical-align:top;">:</td><td><div><table><tr><td style="font-weight:bold;vertical-align:top;">app_folders</td><td style="vertical-align:top;">:</td><td><div>set([&#x27;D:\\\\backup servidor\\\\uli\\\\web2py\\\\web2py\\\\applications\\\\admin\\\\&#x27;, &#x27;D:\\\\backup servidor\\\\uli\\\\web2py\\\\web2py\\\\applications\\\\deteni2\\\\&#x27;])</div></td></tr><tr><td style="font-weight:bold;vertical-align:top;">applications_parent</td><td style="vertical-align:top;">:</td><td><div>D:\\backup servidor\\uli\\web2py\\web2py</div></td></tr><tr><td style="font-weight:bold;vertical-align:top;">cmd_args</td><td style="vertical-align:top;">:</td><td><div><table></table></div></td></tr><tr><td style="font-weight:bold;vertical-align:top;">cmd_options</td><td style="vertical-align:top;">:</td><td><div>&lt;Values at 0x24e5eb8: {&#x27;verbose&#x27;: False, &#x27;ip&#x27;: &#x27;127.0.0.1&#x27;, &#x27;debuglevel&#x27;: 30, &#x27;with_scheduler&#x27;: False, &#x27;shutdown_timeout&#x27;: 5, &#x27;taskbar&#x27;: False, &#x27;with_coverage&#x27;: False, &#x27;pid_filename&#x27;: &#x27;httpserver.pid&#x27;, &#x27;maxthreads&#x27;: None, &#x27;softcron&#x27;: False, &#x27;server_name&#x27;: &#x27;Policia-PC&#x27;, &#x27;bpython&#x27;: False, &#x27;nogui&#x27;: False, &#x27;port&#x27;: 8000, &#x27;print_errors&#x27;: False, &#x27;extcron&#x27;: False, &#x27;runcron&#x27;: False, &#x27;run_system_tests&#x27;: False, &#x27;test&#x27;: None, &#x27;folder&#x27;: &#x27;D:\\\\backup servidor\\\\uli\\\\web2py\\\\web2py&#x27;, &#x27;config&#x27;: &#x27;&#x27;, &#x27;minthreads&#x27;: None, &#x27;shell&#x27;: None, &#x27;run&#x27;: &#x27;&#x27;, &#x27;log_filename&#x27;: &#x27;httpserver.log&#x27;, &#x27;profiler_dir&#x27;: None, &#x27;args&#x27;: [&#x27;&#x27;], &#x27;socket_timeout&#x27;: 5, &#x27;ssl_ca_certificate&#x27;: None, &#x27;scheduler&#x27;: None, &#x27;interfaces&#x27;: None, &#x27;ssl_private_key&#x27;: &#x27;&#x27;, &#x27;gae&#x27;: None, &#x27;password&#x27;: &#x27;******&#x27;, &#x27;request_queue_size&#x27;: 5, &#x27;ssl_certificate&#x27;: &#x27;&#x27;, &#x27;cronjob&#x27;: False, &#x27;numthreads&#x27;: None, &#x27;quiet&#x27;: False, &#x27;import_models&#x27;: False, &#x27;timeout&#x27;: 10, &#x27;plain&#x27;: False, &#x27;nobanner&#x27;: False}&gt;</div></td></tr><tr><td style="font-weight:bold;vertical-align:top;">db_sessions</td><td style="vertical-align:top;">:</td><td><div>set([])</div></td></tr><tr><td style="font-weight:bold;vertical-align:top;">debugging</td><td style="vertical-align:top;">:</td><td><div>False</div></td></tr><tr><td style="font-weight:bold;vertical-align:top;">gluon_parent</td><td style="vertical-align:top;">:</td><td><div>D:\\backup servidor\\uli\\web2py\\web2py</div></td></tr><tr><td style="font-weight:bold;vertical-align:top;">is_jython</td><td style="vertical-align:top;">:</td><td><div>False</div></td></tr><tr><td style="font-weight:bold;vertical-align:top;">is_pypy</td><td style="vertical-align:top;">:</td><td><div>False</div></td></tr><tr><td style="font-weight:bold;vertical-align:top;">is_source</td><td style="vertical-align:top;">:</td><td><div>False</div></td></tr><tr><td style="font-weight:bold;vertical-align:top;">local_hosts</td><td style="vertical-align:top;">:</td><td><div><table><tr><td><div>fe80::519f:8c80:275f:a5cd%11</div></td></tr><tr><td><div>10.20.0.89</div></td></tr><tr><td><div>::ffff:127.0.0.1</div></td></tr><tr><td><div>::1</div></td></tr><tr><td><div>Policia-PC</div></td></tr><tr><td><div>127.0.0.1</div></td></tr></table></div></td></tr><tr><td style="font-weight:bold;vertical-align:top;">web2py_version</td><td style="vertical-align:top;">:</td><td><div>2.14.6-stable+timestamp.2016.05.10.00.21.47</div></td></tr></table></div></td></tr><tr><td style="font-weight:bold;vertical-align:top;">is_https</td><td style="vertical-align:top;">:</td><td><div>False</div></td></tr><tr><td style="font-weight:bold;vertical-align:top;">is_local</td><td style="vertical-align:top;">:</td><td><div>True</div></td></tr><tr><td style="font-weight:bold;vertical-align:top;">is_restful</td><td style="vertical-align:top;">:</td><td><div>False</div></td></tr><tr><td style="font-weight:bold;vertical-align:top;">is_scheduler</td><td style="vertical-align:top;">:</td><td><div>False</div></td></tr><tr><td style="font-weight:bold;vertical-align:top;">is_shell</td><td style="vertical-align:top;">:</td><td><div>False</div></td></tr><tr><td style="font-weight:bold;vertical-align:top;">now</td><td style="vertical-align:top;">:</td><td><div>datetime.datetime(2017, 1, 16, 16, 53, 35, 677000)</div></td></tr><tr><td style="font-weight:bold;vertical-align:top;">raw_args</td><td style="vertical-align:top;">:</td><td><div>deteni2/historial.persona/3</div></td></tr><tr><td style="font-weight:bold;vertical-align:top;">raw_extension</td><td style="vertical-align:top;">:</td><td><div>None</div></td></tr><tr><td style="font-weight:bold;vertical-align:top;">url</td><td style="vertical-align:top;">:</td><td><div>/deteni2/default/historial/deteni2/historial.persona/3</div></td></tr><tr><td style="font-weight:bold;vertical-align:top;">utcnow</td><td style="vertical-align:top;">:</td><td><div>datetime.datetime(2017, 1, 16, 19, 53, 35, 677000)</div></td></tr><tr><td style="font-weight:bold;vertical-align:top;">wsgi</td><td style="vertical-align:top;">:</td><td><div>&lt;gluon.main.LazyWSGI object at 0x03D79D50&gt;</div></td></tr></table></div>'
tRp58
sS'frames'
p59
(lp60
(dp61
S'file'
p62
S'D:\\backup servidor\\uli\\web2py\\web2py\\gluon\\restricted.py'
p63
sS'dump'
p64
(dp65
S'environment'
p66
S"{'A': <class 'gluon.html.A'>, 'ANY_OF': <class 'gluon.validators.ANY_OF'>, 'ASSIGNJS': <function ASSIGNJS>, 'AppConfig': <function AppConfig>, 'Auth': <class 'gluon.tools.Auth'>, 'B': <class 'gluon.html.B'>, 'BEAUTIFY': <class 'gluon.html.BEAUTIFY'>, 'BODY': <class 'gluon.html.BODY'>, 'BR': <class 'gluon.html.BR'>, 'BUTTON': <class 'gluon.html.BUTTON'>, ...}"
p67
sS'ccode'
p68
S'<code object <module> at 038222F0, file "D:\\back...ications\\deteni2\\controllers/default.py", line 2>'
p69
ssS'lnum'
p70
I227
sS'lines'
p71
(dp72
I224
S'            ccode = code'
p73
sI225
S'        else:'
p74
sI226
S'            ccode = compile2(code, layer)'
p75
sI227
S'        exec ccode in environment'
p76
sI228
S'    except HTTP:'
p77
sI229
S'        raise'
p78
sI230
S'    except RestrictedError:'
p79
sI231
S'        # do not encapsulate (obfuscate) the original RestrictedError'
p80
sI222
S'    try:'
p81
sI223
S'        if isinstance(code, types.CodeType):'
p82
ssS'call'
p83
S"(code='\\ndef index():\\n    return dict()\\n\\ndef consulta1()... \\n\\n\\n\\n\\nresponse._vars=response._caller(historial)\\n', environment={'A': <class 'gluon.html.A'>, 'ANY_OF': <class 'gluon.validators.ANY_OF'>, 'ASSIGNJS': <function ASSIGNJS>, 'AppConfig': <function AppConfig>, 'Auth': <class 'gluon.tools.Auth'>, 'B': <class 'gluon.html.B'>, 'BEAUTIFY': <class 'gluon.html.BEAUTIFY'>, 'BODY': <class 'gluon.html.BODY'>, 'BR': <class 'gluon.html.BR'>, 'BUTTON': <class 'gluon.html.BUTTON'>, ...}, layer=r'D:\\backup servidor\\uli\\web2py\\web2py\\applications\\deteni2\\controllers/default.py')"
p84
sS'func'
p85
S'restricted'
p86
sa(dp87
g62
S'D:\\backup servidor\\uli\\web2py\\web2py\\applications\\deteni2\\controllers\\default.py'
p88
sg64
(dp89
sg70
I541
sg71
(dp90
I530
S''
sI531
S''
sI532
S''
sI533
S''
sI534
S''
sI535
S''
sI536
S''
sI537
S''
sI538
S''
sI539
S''
ssg83
S'()'
p91
sg85
S'<module>'
p92
sa(dp93
g62
S'D:\\backup servidor\\uli\\web2py\\web2py\\gluon\\globals.py'
p94
sg64
(dp95
S'self'
p96
S'undefined'
p97
sS'f'
S'<function historial>'
p98
ssg70
I417
sg71
(dp99
I416
S'        self._vars = None'
p100
sI417
S'        self._caller = lambda f: f()'
p101
sI418
S'        self._view_environment = None'
p102
sI419
S'        self._custom_commit = None'
p103
sI420
S'        self._custom_rollback = None'
p104
sI421
S"        self.generic_patterns = ['*']"
p105
sI412
S"        self.flash = ''            # used by the default view layout"
p106
sI413
S'        self.meta = Storage()      # used by web2py_ajax.html'
p107
sI414
S'        self.menu = []             # used by the default view layout'
p108
sI415
S'        self.files = []            # used by web2py_ajax.html'
p109
ssg83
S'(f=<function historial>)'
p110
sg85
S'<lambda>'
p111
sa(dp112
g62
S'D:\\backup servidor\\uli\\web2py\\web2py\\applications\\deteni2\\controllers\\default.py'
p113
sg64
(dp114
S'builtinFalse'
p115
S'False'
p116
sS'global SQLFORM'
p117
S"<class 'gluon.sqlhtml.SQLFORM'>"
p118
sS'paginate'
p119
g97
sS'editable'
p120
g97
sS'upload'
p121
g97
sS'linked_tables'
p122
g97
sS'grid'
p123
g97
sS'deletable'
p124
g97
sS'global db'
p125
S'<DAL uri="sqlite://storage.sqlite">'
p126
sS'SQLFORM.smartgrid'
p127
S'<function smartgrid>'
p128
sS'db.deteni2'
p129
S'<Table deteni2 (id, dni, apellido, nombre, alias...fil2, tatu_cicatriz, tatu_cicatriz2, comentario)>'
p130
ssg70
I374
sg71
(dp131
I369
S'    return dict(grid=grid,query=query)#hora_max=hora_max)'
p132
sI370
S''
sI371
S'def historial():'
p133
sI372
S''
sI373
S''
sI374
S"    grid = SQLFORM.smartgrid(db.deteni2, linked_tables=['historial'],deletable=False,paginate=10,editable=False,upload='<default>')"
p134
sI375
S'    return locals()'
p135
sI376
S''
sI377
S''
sI378
S''
ssg83
S'()'
p136
sg85
S'historial'
p137
sa(dp138
g62
S'D:\\backup servidor\\uli\\web2py\\web2py\\gluon\\sqlhtml.py'
p139
sg64
(dp140
S'user_signature'
p141
S'True'
p142
sS'kwargs'
p143
S"{'deletable': False, 'editable': False, 'paginate': 10, 'upload': '<default>'}"
p144
ssg70
I3102
sg71
(dp145
I3104
S'        if isinstance(grid, DIV):'
p146
sI3105
S'            header = table._plural'
p147
sI3106
S'            next = grid.create_form or grid.update_form or grid.view_form'
p148
sI3097
S'                                A(SPAN(t), cid=request.cid, _href=url('
p149
sI3098
S'                                    args=[args0, row[id_field_name]])))'
p150
sI3099
S'        links += linked'
p151
sI3100
S'        grid = SQLFORM.grid(query, args=request.args[:nargs], links=links,'
p152
sI3101
S'                            links_in_grid=links_in_grid,'
p153
sI3102
S'                            user_signature=user_signature, **kwargs)'
p154
sI3103
S''
ssg83
S"(table=<Table historial (id, persona, comisaria, organi..., es, calidad, comentarios, trasladado, horario)>, constraints={}, linked_tables=['historial'], links=[], links_in_grid=True, args=[], user_signature=True, divider='>', breadcrumbs_class='', **kwargs={'deletable': False, 'editable': False, 'paginate': 10, 'upload': '<default>'})"
p155
sg85
S'smartgrid'
p156
sa(dp157
g62
S'D:\\backup servidor\\uli\\web2py\\web2py\\gluon\\sqlhtml.py'
p158
sg64
(dp159
S'repr_cache'
p160
S'<gluon.sqlhtml.CacheRepresenter object>'
p161
sS'field'
p162
S'<pydal.objects.Field object>'
p163
sS'row'
p164
S"<Row {'organismos': 1L, 'persona': 3L, 'comisari...': 25L, 'es': 'entrada', 'comentarios': 'asdad'}>"
p165
sS'value'
p166
S'1L'
p167
sS'nvalue'
p168
S"'bony,lola,365'"
p169
ssg70
I2762
sg71
(dp170
I2757
S'                    else:'
p171
sI2758
S'                        value = row[str(field)]'
p172
sI2759
S'                    maxlength = maxtextlengths.get(str(field), maxtextlength)'
p173
sI2760
S'                    if field.represent:'
p174
sI2761
S"                        if field.type.startswith('reference'):"
p175
sI2762
S'                            nvalue = repr_cache(field, value, row)'
p176
sI2763
S'                        else:'
p177
sI2764
S'                            try:'
p178
sI2765
S'                                nvalue = field.represent(value, row)'
p179
sI2766
S'                            except KeyError:'
p180
ssg83
S"(query=<Query (historial.persona = 3)>, fields=[<pydal.objects.Field object>, <pydal.objects.Field object>, <pydal.objects.Field object>, <pydal.objects.Field object>, <pydal.objects.Field object>, <pydal.objects.Field object>, <pydal.objects.Field object>, <pydal.objects.Field object>, <pydal.objects.Field object>, <pydal.objects.Field object>, <pydal.objects.Field object>], field_id=<pydal.objects.Field object>, left=None, headers={}, orderby=<pydal.objects.Field object>, groupby=None, searchable=True, sortable=True, paginate=10, deletable=None, editable=None, details=True, selectable=None, create=None, csv=True, links=[], links_in_grid=True, upload=<function <lambda>>, args=['deteni2', 'historial.persona', '3'], user_signature=True, maxtextlengths={}, maxtextlength=20, onvalidation=None, onfailure=None, oncreate=None, onupdate=None, ondelete=None, sorter_icons=(<gluon.html.XML object>, <gluon.html.XML object>), ui={'button': 'button btn btn-default', 'buttonadd': 'icon plus icon-plus glyphicon glyphicon-plus', 'buttonback': 'icon leftarrow icon-arrow-left glyphicon glyphicon-arrow-left', 'buttondelete': 'icon trash icon-trash glyphicon glyphicon-trash', 'buttonedit': 'icon pen icon-pencil glyphicon glyphicon-pencil', 'buttonexport': 'icon downarrow icon-download glyphicon glyphicon-download', 'buttontable': 'icon rightarrow icon-arrow-right glyphicon glyphicon-arrow-right', 'buttontext': 'buttontext button', 'buttonview': 'icon magnifier icon-zoom-in glyphicon glyphicon-zoom-in', 'content': '', ...}, showbuttontext=True, _class='web2py_grid', formname='web2py_grid', search_widget=<function <lambda>>, advanced_search=True, ignore_rw=False, formstyle='bootstrap3_inline', exportclasses=None, formargs={}, createargs={}, editargs={}, viewargs={}, selectable_submit_button='Submit', buttons_placement='right', links_placement='right', noconfirm=False, cache_count=None, client_side_delete=False, ignore_common_filters=None, auto_pagination=True, use_cursor=False)"
p181
sg85
S'grid'
p182
sa(dp183
g62
S'D:\\backup servidor\\uli\\web2py\\web2py\\gluon\\sqlhtml.py'
p184
sg64
(dp185
S'field.represent'
p186
S'<pydal.helpers.methods._repr_ref object>'
p187
sS'field'
p188
S'<pydal.objects.Field object>'
p189
sS'row'
p190
S"<Row {'organismos': 1L, 'persona': 3L, 'comisari...': 25L, 'es': 'entrada', 'comentarios': 'asdad'}>"
p191
sS'value'
p192
S'1L'
p193
sS'nvalue'
p194
g97
ssg70
I85
sg71
(dp195
I80
S'            cache[field] = {}'
p196
sI81
S'        try:'
p197
sI82
S'            nvalue = cache[field][value]'
p198
sI83
S'        except KeyError:'
p199
sI84
S'            try:'
p200
sI85
S'                nvalue = field.represent(value, row)'
p201
sI86
S'            except KeyError:'
p202
sI87
S'                try:'
p203
sI88
S'                    nvalue = field.represent(value, row[field.tablename])'
p204
sI89
S'                except KeyError:'
p205
ssg83
S"(self=<gluon.sqlhtml.CacheRepresenter object>, field=<pydal.objects.Field object>, value=1L, row=<Row {'organismos': 1L, 'persona': 3L, 'comisari...': 25L, 'es': 'entrada', 'comentarios': 'asdad'}>)"
p206
sg85
S'__call__'
p207
sa(dp208
g62
S'D:\\backup servidor\\uli\\web2py\\web2py\\gluon\\packages\\dal\\pydal\\helpers\\methods.py'
p209
sg64
(dp210
S'builtinNone'
p211
S'None'
p212
sS'global _fieldformat'
p213
S'<function _fieldformat>'
p214
sS'self'
p215
S'<pydal.helpers.methods._repr_ref object>'
p216
sS'self.ref'
p217
S'<Table dependencias_polciales (id, ingrese_nueva_dependencia_policial, capacidad_calabozo)>'
p218
sS'value'
p219
S'1L'
p220
ssg70
I265
sg71
(dp221
I260
S'class _repr_ref(object):'
p222
sI261
S'    def __init__(self, ref=None):'
p223
sI262
S'        self.ref = ref'
p224
sI263
S''
sI264
S'    def __call__(self, value, row=None):'
p225
sI265
S'        return value if value is None else _fieldformat(self.ref, value)'
p226
sI266
S''
sI267
S''
sI268
S'class _repr_ref_list(_repr_ref):'
p227
sI269
S'    def __call__(self, value, row=None):'
p228
ssg83
S"(self=<pydal.helpers.methods._repr_ref object>, value=1L, row=<Row {'organismos': 1L, 'persona': 3L, 'comisari...': 25L, 'es': 'entrada', 'comentarios': 'asdad'}>)"
p229
sg85
g207
sa(dp230
g62
S'D:\\backup servidor\\uli\\web2py\\web2py\\gluon\\packages\\dal\\pydal\\helpers\\methods.py'
p231
sg64
(dp232
S'r'
S'<Table dependencias_polciales (id, ingrese_nueva_dependencia_policial, capacidad_calabozo)>'
p233
sS'id'
p234
S'1L'
p235
sS'row'
p236
g97
ssg70
I249
sg71
(dp237
I244
S'        field_validators = [field_validators]'
p238
sI245
S'    return field_validators'
p239
sI246
S''
sI247
S''
sI248
S'def _fieldformat(r, id):'
p240
sI249
S'    row = r(id)'
p241
sI250
S'    if not row:'
p242
sI251
S'        return str(id)'
p243
sI252
S"    elif hasattr(r, '_format') and isinstance(r._format, str):"
p244
sI253
S'        return r._format % row'
p245
ssg83
S'(r=<Table dependencias_polciales (id, ingrese_nueva_dependencia_policial, capacidad_calabozo)>, id=1L)'
p246
sg85
S'_fieldformat'
p247
sa(dp248
g62
S'D:\\backup servidor\\uli\\web2py\\web2py\\gluon\\packages\\dal\\pydal\\objects.py'
p249
sg64
(dp250
S'orderby_on_limitby'
p251
g97
sS').first'
p252
g97
sS'builtinFalse'
p253
g116
ssg70
I535
sg71
(dp254
I530
S'            else:'
p255
sI531
S'                record = self._db(self._id == key).select('
p256
sI532
S'                    limitby=(0, 1),'
p257
sI533
S'                    for_update=for_update,'
p258
sI534
S'                    orderby=orderby,'
p259
sI535
S'                    orderby_on_limitby=False).first()'
p260
sI536
S'            if record:'
p261
sI537
S'                for k, v in iteritems(kwargs):'
p262
sI538
S'                    if record[k] != v:'
p263
sI539
S'                        return None'
p264
ssg83
S'(self=<Table dependencias_polciales (id, ingrese_nueva_dependencia_policial, capacidad_calabozo)>, key=1L, **kwargs={})'
p265
sg85
g207
sa(dp266
g62
S'D:\\backup servidor\\uli\\web2py\\web2py\\gluon\\packages\\dal\\pydal\\objects.py'
p267
sg64
(dp268
S'self.query'
p269
S'<Query (dependencias_polciales.id = 1)>'
p270
sS'adapter.select'
p271
S'<bound method SQLiteAdapter.select of <pydal.adapters.sqlite.SQLiteAdapter object>>'
p272
sS'fields'
p273
S'[<pydal.objects.Field object>, <pydal.objects.Field object>, <pydal.objects.Field object>]'
p274
sS'adapter'
p275
S'<pydal.adapters.sqlite.SQLiteAdapter object>'
p276
sS'attributes'
p277
S"{'for_update': False, 'limitby': (0, 1), 'orderby': None, 'orderby_on_limitby': False}"
p278
sS'self'
p279
S'<Set (dependencias_polciales.id = 1)>'
p280
ssg70
I2020
sg71
(dp281
I2016
S"                                    attributes.get('left', None),"
p282
sI2017
S"                                    attributes.get('orderby', None),"
p283
sI2018
S"                                    attributes.get('groupby', None))"
p284
sI2019
S'        fields = adapter.expand_all(fields, tablenames)'
p285
sI2020
S'        return adapter.select(self.query, fields, attributes)'
p286
sI2021
S''
sI2022
S'    def iterselect(self, *fields, **attributes):'
p287
sI2023
S'        adapter = self.db._adapter'
p288
sI2024
S'        tablenames = adapter.tables(self.query,'
p289
sI2015
S"                                    attributes.get('join', None),"
p290
ssg83
S"(self=<Set (dependencias_polciales.id = 1)>, *fields=[<pydal.objects.Field object>, <pydal.objects.Field object>, <pydal.objects.Field object>], **attributes={'for_update': False, 'limitby': (0, 1), 'orderby': None, 'orderby_on_limitby': False})"
p291
sg85
S'select'
p292
sa(dp293
g62
S'D:\\backup servidor\\uli\\web2py\\web2py\\gluon\\packages\\dal\\pydal\\adapters\\sqlite.py'
p294
sg64
(dp295
S'fields'
p296
S'[<pydal.objects.Field object>, <pydal.objects.Field object>, <pydal.objects.Field object>]'
p297
sS'self'
p298
S'<pydal.adapters.sqlite.SQLiteAdapter object>'
p299
sS').select'
p300
S'<bound method SQLiteAdapter.select of <pydal.adapters.sqlite.SQLiteAdapter object>>'
p301
sS'attributes'
p302
S"{'for_update': False, 'limitby': (0, 1), 'orderby': None, 'orderby_on_limitby': False}"
p303
sS'global SQLiteAdapter'
p304
S"<class 'pydal.adapters.sqlite.SQLiteAdapter'>"
p305
sS'query'
p306
S'<Query (dependencias_polciales.id = 1)>'
p307
sS'builtinsuper'
p308
S"<type 'super'>"
p309
ssg70
I123
sg71
(dp310
I118
S'        Note that the entire database, rather than one record, is locked'
p311
sI119
S'        (it will be locked eventually anyway by the following UPDATE).'
p312
sI120
S'        """'
p313
sI121
S"        if attributes.get('for_update', False) and not 'cache' in attributes:"
p314
sI122
S"            self.execute('BEGIN IMMEDIATE TRANSACTION;')"
p315
sI123
S'        return super(SQLiteAdapter, self).select(query, fields, attributes)'
p316
sI124
S''
sI125
S''
sI126
S'SPATIALLIBS = {'
p317
sI127
S"    'Windows':'mod_spatialite.dll',"
p318
ssg83
S"(self=<pydal.adapters.sqlite.SQLiteAdapter object>, query=<Query (dependencias_polciales.id = 1)>, fields=[<pydal.objects.Field object>, <pydal.objects.Field object>, <pydal.objects.Field object>], attributes={'for_update': False, 'limitby': (0, 1), 'orderby': None, 'orderby_on_limitby': False})"
p319
sg85
g292
sa(dp320
g62
S'D:\\backup servidor\\uli\\web2py\\web2py\\gluon\\packages\\dal\\pydal\\adapters\\base.py'
p321
sg64
(dp322
S'fields'
p323
S'[<pydal.objects.Field object>, <pydal.objects.Field object>, <pydal.objects.Field object>]'
p324
sS'self'
p325
S'<pydal.adapters.sqlite.SQLiteAdapter object>'
p326
sS'attributes'
p327
S"{'for_update': False, 'limitby': (0, 1), 'orderby': None, 'orderby_on_limitby': False}"
p328
sS'self._select_aux'
p329
S'<bound method SQLiteAdapter._select_aux of <pydal.adapters.sqlite.SQLiteAdapter object>>'
p330
sS'sql'
p331
S"'SELECT  dependencias_polciales.id, dependencias_...(dependencias_polciales.id = 1) LIMIT 1 OFFSET 0;'"
p332
ssg70
I1296
sg71
(dp333
I1291
S'            return cache_model('
p334
sI1292
S'                key,'
p335
sI1293
S'                lambda self=self,args=args:self._select_aux(*args),'
p336
sI1294
S'                time_expire)'
p337
sI1295
S'        else:'
p338
sI1296
S'            return self._select_aux(sql,fields,attributes)'
p339
sI1297
S''
sI1298
S'    def iterselect(self, query, fields, attributes):'
p340
sI1299
S'        sql = self._select(query, fields, attributes)'
p341
sI1300
S"        cacheable = attributes.get('cacheable', False)"
p342
ssg83
S"(self=<pydal.adapters.sqlite.SQLiteAdapter object>, query=<Query (dependencias_polciales.id = 1)>, fields=[<pydal.objects.Field object>, <pydal.objects.Field object>, <pydal.objects.Field object>], attributes={'for_update': False, 'limitby': (0, 1), 'orderby': None, 'orderby_on_limitby': False})"
p343
sg85
g292
sa(dp344
g62
S'D:\\backup servidor\\uli\\web2py\\web2py\\gluon\\packages\\dal\\pydal\\adapters\\base.py'
p345
sg64
(dp346
S'rows'
p347
S"[(1, u'comisaria primera', u'')]"
p348
sS'fields'
p349
S'[<pydal.objects.Field object>, <pydal.objects.Field object>, <pydal.objects.Field object>]'
p350
sS'self'
p351
S'<pydal.adapters.sqlite.SQLiteAdapter object>'
p352
sS'cacheable'
p353
g116
sS'self._colnames'
p354
S"['dependencias_polciales.id', 'dependencias_polciales.ingrese_nueva_dependencia_policial', 'dependencias_polciales.capacidad_calabozo']"
p355
sS'processor'
p356
S'<bound method SQLiteAdapter.parse of <pydal.adapters.sqlite.SQLiteAdapter object>>'
p357
ssg70
I1277
sg71
(dp358
I1280
S'        """'
p359
sI1281
S'        Always returns a Rows object, possibly empty.'
p360
sI1272
S'            rows = list(rows)'
p361
sI1273
S"        limitby = args_get('limitby', None) or (0,)"
p362
sI1274
S'        rows = self.rowslice(rows,limitby[0],None)'
p363
sI1275
S"        processor = args_get('processor', self.parse)"
p364
sI1276
S"        cacheable = args_get('cacheable',False)"
p365
sI1277
S'        return processor(rows,fields,self._colnames,cacheable=cacheable)'
p366
sI1278
S''
sI1279
S'    def select(self, query, fields, attributes):'
p367
ssg83
S"(self=<pydal.adapters.sqlite.SQLiteAdapter object>, sql='SELECT  dependencias_polciales.id, dependencias_...(dependencias_polciales.id = 1) LIMIT 1 OFFSET 0;', fields=[<pydal.objects.Field object>, <pydal.objects.Field object>, <pydal.objects.Field object>], attributes={'for_update': False, 'limitby': (0, 1), 'orderby': None, 'orderby_on_limitby': False})"
p368
sg85
S'_select_aux'
p369
sa(dp370
g62
S'D:\\backup servidor\\uli\\web2py\\web2py\\gluon\\packages\\dal\\pydal\\adapters\\base.py'
p371
sg64
(dp372
S'rows'
p373
S"[(1, u'comisaria primera', u'')]"
p374
sS'row'
p375
S"(1, u'comisaria primera', u'')"
p376
ssg70
I1767
sg71
(dp377
I1762
S''
sI1763
S'    def parse(self, rows, fields, colnames, blob_decode=True, cacheable=False):'
p378
sI1764
S'        (fields_virtual, fields_lazy, tmps) = self._parse_expand_colnames(colnames)'
p379
sI1765
S'        new_rows = [self._parse(row, tmps, fields, colnames, blob_decode,'
p380
sI1766
S'                                cacheable, fields_virtual, fields_lazy)'
p381
sI1767
S'                    for row in rows]'
p382
sI1768
S''
sI1769
S'        rowsobj = Rows(self.db, new_rows, colnames, rawrows=rows)'
p383
sI1770
S''
sI1771
S'        # Old stype virtual fields'
p384
ssg83
S"(self=<pydal.adapters.sqlite.SQLiteAdapter object>, rows=[(1, u'comisaria primera', u'')], fields=[<pydal.objects.Field object>, <pydal.objects.Field object>, <pydal.objects.Field object>], colnames=['dependencias_polciales.id', 'dependencias_polciales.ingrese_nueva_dependencia_policial', 'dependencias_polciales.capacidad_calabozo'], blob_decode=True, cacheable=False)"
p385
sg85
S'parse'
p386
sa(dp387
g62
S'D:\\backup servidor\\uli\\web2py\\web2py\\gluon\\packages\\dal\\pydal\\adapters\\base.py'
p388
sg64
(dp389
S'blob_decode'
p390
g142
sS'self'
p391
S'<pydal.adapters.sqlite.SQLiteAdapter object>'
p392
sS'ft'
p393
S"'integer'"
p394
sS'value'
p395
S"u''"
p396
sS'self.parse_value'
p397
S'<bound method SQLiteAdapter.parse_value of <pydal.adapters.sqlite.SQLiteAdapter object>>'
p398
ssg70
I1677
sg71
(dp399
I1672
S'                (tablename, fieldname, table, field, ft) = tmp'
p400
sI1673
S'                colset = new_row.get(tablename, None)'
p401
sI1674
S'                if colset is None:'
p402
sI1675
S'                    colset = new_row[tablename] = self.db.Row()'
p403
sI1676
S''
sI1677
S'                value = self.parse_value(value, ft, blob_decode)'
p404
sI1678
S'                if field.filter_out:'
p405
sI1679
S'                    value = field.filter_out(value)'
p406
sI1680
S'                colset[fieldname] = value'
p407
sI1681
S''
ssg83
S"(self=<pydal.adapters.sqlite.SQLiteAdapter object>, row=(1, u'comisaria primera', u''), tmps=[('dependencias_polciales', 'id', <Table dependencias_polciales (id, ingrese_nueva_dependencia_policial, capacidad_calabozo)>, <pydal.objects.Field object>, 'id'), ('dependencias_polciales', 'ingrese_nueva_dependencia_policial', <Table dependencias_polciales (id, ingrese_nueva_dependencia_policial, capacidad_calabozo)>, <pydal.objects.Field object>, 'string'), ('dependencias_polciales', 'capacidad_calabozo', <Table dependencias_polciales (id, ingrese_nueva_dependencia_policial, capacidad_calabozo)>, <pydal.objects.Field object>, 'integer')], fields=[<pydal.objects.Field object>, <pydal.objects.Field object>, <pydal.objects.Field object>], colnames=['dependencias_polciales.id', 'dependencias_polciales.ingrese_nueva_dependencia_policial', 'dependencias_polciales.capacidad_calabozo'], blob_decode=True, cacheable=False, fields_virtual={'dependencias_polciales': []}, fields_lazy={'dependencias_polciales': []})"
p408
sg85
S'_parse'
p409
sa(dp410
g62
S'D:\\backup servidor\\uli\\web2py\\web2py\\gluon\\packages\\dal\\pydal\\adapters\\base.py'
p411
sg64
(dp412
S'field_type'
p413
S"'integer'"
p414
sS'self'
p415
S'<pydal.adapters.sqlite.SQLiteAdapter object>'
p416
sS'self.parsemap'
p417
S"{'bigint': <bound method SQLiteAdapter.parse_integer of <pydal.adapters.sqlite.SQLiteAdapter object>>, 'blob': <bound method SQLiteAdapter.parse_blob of <pydal.adapters.sqlite.SQLiteAdapter object>>, 'boolean': <bound method SQLiteAdapter.parse_boolean of <pydal.adapters.sqlite.SQLiteAdapter object>>, 'date': <bound method SQLiteAdapter.parse_date of <pydal.adapters.sqlite.SQLiteAdapter object>>, 'datetime': <bound method SQLiteAdapter.parse_datetime of <pydal.adapters.sqlite.SQLiteAdapter object>>, 'decimal': <bound method SQLiteAdapter.parse_decimal of <pydal.adapters.sqlite.SQLiteAdapter object>>, 'double': <bound method SQLiteAdapter.parse_double of <pydal.adapters.sqlite.SQLiteAdapter object>>, 'float': <bound method SQLiteAdapter.parse_double of <pydal.adapters.sqlite.SQLiteAdapter object>>, 'id': <bound method SQLiteAdapter.parse_id of <pydal.adapters.sqlite.SQLiteAdapter object>>, 'integer': <bound method SQLiteAdapter.parse_integer of <pydal.adapters.sqlite.SQLiteAdapter object>>, ...}"
p418
sS'value'
p419
S"''"
p420
sS'key'
p421
S"'integer'"
p422
ssg70
I1527
sg71
(dp423
I1522
S'            return value'
p424
sI1523
S"        elif field_type == 'blob' and not blob_decode:"
p425
sI1524
S'            return value'
p426
sI1525
S'        else:'
p427
sI1526
S'            key = REGEX_TYPE.match(field_type).group(0)'
p428
sI1527
S'            return self.parsemap[key](value,field_type)'
p429
sI1528
S''
sI1529
S'    def parse_reference(self, value, field_type):'
p430
sI1530
S'        referee = field_type[10:].strip()'
p431
sI1531
S"        if not '.' in referee:"
p432
ssg83
S"(self=<pydal.adapters.sqlite.SQLiteAdapter object>, value='', field_type='integer', blob_decode=True)"
p433
sg85
S'parse_value'
p434
sa(dp435
g62
S'D:\\backup servidor\\uli\\web2py\\web2py\\gluon\\packages\\dal\\pydal\\adapters\\base.py'
p436
sg64
(dp437
S'global long'
p438
S"<type 'long'>"
p439
sS'value'
p440
S"''"
p441
ssg70
I1625
sg71
(dp442
I1620
S''
sI1621
S'    def parse_id(self, value, field_type):'
p443
sI1622
S'        return long(value)'
p444
sI1623
S''
sI1624
S'    def parse_integer(self, value, field_type):'
p445
sI1625
S'        return long(value)'
p446
sI1626
S''
sI1627
S'    def parse_double(self, value, field_type):'
p447
sI1628
S'        return float(value)'
p448
sI1629
S''
ssg83
S"(self=<pydal.adapters.sqlite.SQLiteAdapter object>, value='', field_type='integer')"
p449
sg85
S'parse_integer'
p450
sasS'pyver'
p451
S'Python 2.7.9: D:\\backup servidor\\uli\\web2py\\web2py\\web2py.exe (prefix: C:\\Python27)'
p452
sS'session'
p453
g57
(S's\x1a\x00\x00\x00<div><table></table></div>'
tRp454
sS'etype'
p455
S"<type 'exceptions.ValueError'>"
p456
sS'date'
p457
S'Mon Jan 16 16:53:35 2017'
p458
sS'response'
p459
g57
(S's\xe5?\x00\x00<div><table><tr><td style="font-weight:bold;vertical-align:top;">body</td><td style="vertical-align:top;">:</td><td><div>&lt;cStringIO.StringO object at 0x03E53320&gt;</div></td></tr><tr><td style="font-weight:bold;vertical-align:top;">cookies</td><td style="vertical-align:top;">:</td><td><div><table><tr><td style="font-weight:bold;vertical-align:top;">session_id_deteni2</td><td style="vertical-align:top;">:</td><td><div>127.0.0.1-0ebac227-a664-48db-984b-3f443a1a1b82<table><tr><td style="font-weight:bold;vertical-align:top;">comment</td><td style="vertical-align:top;">:</td><td><div></div></td></tr><tr><td style="font-weight:bold;vertical-align:top;">domain</td><td style="vertical-align:top;">:</td><td><div></div></td></tr><tr><td style="font-weight:bold;vertical-align:top;">expires</td><td style="vertical-align:top;">:</td><td><div></div></td></tr><tr><td style="font-weight:bold;vertical-align:top;">httponly</td><td style="vertical-align:top;">:</td><td><div></div></td></tr><tr><td style="font-weight:bold;vertical-align:top;">max-age</td><td style="vertical-align:top;">:</td><td><div></div></td></tr><tr><td style="font-weight:bold;vertical-align:top;">path</td><td style="vertical-align:top;">:</td><td><div>/</div></td></tr><tr><td style="font-weight:bold;vertical-align:top;">secure</td><td style="vertical-align:top;">:</td><td><div></div></td></tr><tr><td style="font-weight:bold;vertical-align:top;">version</td><td style="vertical-align:top;">:</td><td><div></div></td></tr></table></div></td></tr></table></div></td></tr><tr><td style="font-weight:bold;vertical-align:top;">delimiters</td><td style="vertical-align:top;">:</td><td><div><table><tr><td><div>{{</div></td></tr><tr><td><div>}}</div></td></tr></table></div></td></tr><tr><td style="font-weight:bold;vertical-align:top;">files</td><td style="vertical-align:top;">:</td><td><div><table></table></div></td></tr><tr><td style="font-weight:bold;vertical-align:top;">flash</td><td style="vertical-align:top;">:</td><td><div></div></td></tr><tr><td style="font-weight:bold;vertical-align:top;">form_label_separator</td><td style="vertical-align:top;">:</td><td><div></div></td></tr><tr><td style="font-weight:bold;vertical-align:top;">formstyle</td><td style="vertical-align:top;">:</td><td><div>bootstrap3_inline</div></td></tr><tr><td style="font-weight:bold;vertical-align:top;">generic_patterns</td><td style="vertical-align:top;">:</td><td><div><table><tr><td><div>*</div></td></tr></table></div></td></tr><tr><td style="font-weight:bold;vertical-align:top;">google_analytics_id</td><td style="vertical-align:top;">:</td><td><div>None</div></td></tr><tr><td style="font-weight:bold;vertical-align:top;">headers</td><td style="vertical-align:top;">:</td><td><div><table><tr><td style="font-weight:bold;vertical-align:top;">X-Powered-By</td><td style="vertical-align:top;">:</td><td><div>web2py</div></td></tr></table></div></td></tr><tr><td style="font-weight:bold;vertical-align:top;">logo</td><td style="vertical-align:top;">:</td><td><div><a class="navbar-brand" href="http://www.web2py.com/" id="web2py-logo"><b>web<span>2</span>py</b>&trade;&nbsp;</a></div></td></tr><tr><td style="font-weight:bold;vertical-align:top;">menu</td><td style="vertical-align:top;">:</td><td><div><table><tr><td><div><table><tr><td><div>Inicio</div></td></tr><tr><td><div>False</div></td></tr><tr><td><div>/deteni2/default/index</div></td></tr><tr><td><div><table></table></div></td></tr></table></div></td></tr><tr><td><div><table><tr><td><div>Mis Sitios</div></td></tr><tr><td><div>False</div></td></tr><tr><td><div>/admin/default/site</div></td></tr></table></div></td></tr><tr><td><div><table><tr><td><div>Esta Aplicaci\xc3\xb3n</div></td></tr><tr><td><div>False</div></td></tr><tr><td><div>#</div></td></tr><tr><td><div><table><tr><td><div><table><tr><td><div>Design</div></td></tr><tr><td><div>False</div></td></tr><tr><td><div>/admin/default/design/deteni2</div></td></tr></table></div></td></tr><tr><td><div><li class="divider"></li></div></td></tr><tr><td><div><table><tr><td><div>Controlador</div></td></tr><tr><td><div>False</div></td></tr><tr><td><div>/admin/default/edit/deteni2/controllers/default.py</div></td></tr></table></div></td></tr><tr><td><div><table><tr><td><div>Vista</div></td></tr><tr><td><div>False</div></td></tr><tr><td><div>/admin/default/edit/deteni2/views/default/historial.html</div></td></tr></table></div></td></tr><tr><td><div><table><tr><td><div>Modelo BDD</div></td></tr><tr><td><div>False</div></td></tr><tr><td><div>/admin/default/edit/deteni2/models/db.py</div></td></tr></table></div></td></tr><tr><td><div><table><tr><td><div>Modelo "menu"</div></td></tr><tr><td><div>False</div></td></tr><tr><td><div>/admin/default/edit/deteni2/models/menu.py</div></td></tr></table></div></td></tr><tr><td><div><table><tr><td><div>Config.ini</div></td></tr><tr><td><div>False</div></td></tr><tr><td><div>/admin/default/edit/deteni2/private/appconfig.ini</div></td></tr></table></div></td></tr><tr><td><div><table><tr><td><div>Dise\xc3\xb1o de p\xc3\xa1gina</div></td></tr><tr><td><div>False</div></td></tr><tr><td><div>/admin/default/edit/deteni2/views/layout.html</div></td></tr></table></div></td></tr><tr><td><div><table><tr><td><div>Hoja de estilo</div></td></tr><tr><td><div>False</div></td></tr><tr><td><div>/admin/default/edit/deteni2/static/css/web2py-bootstrap3.css</div></td></tr></table></div></td></tr><tr><td><div><table><tr><td><div>Base de datos</div></td></tr><tr><td><div>False</div></td></tr><tr><td><div>/deteni2/appadmin/index</div></td></tr></table></div></td></tr><tr><td><div><table><tr><td><div>Errores</div></td></tr><tr><td><div>False</div></td></tr><tr><td><div>/admin/default/errors/deteni2</div></td></tr></table></div></td></tr><tr><td><div><table><tr><td><div>Acerca de</div></td></tr><tr><td><div>False</div></td></tr><tr><td><div>/admin/default/about/deteni2</div></td></tr></table></div></td></tr></table></div></td></tr></table></div></td></tr><tr><td><div><table><tr><td><div>web2py.com</div></td></tr><tr><td><div>False</div></td></tr><tr><td><div>#</div></td></tr><tr><td><div><table><tr><td><div><table><tr><td><div>Descargas</div></td></tr><tr><td><div>False</div></td></tr><tr><td><div>http://www.web2py.com/examples/default/download</div></td></tr></table></div></td></tr><tr><td><div><table><tr><td><div>Soporte</div></td></tr><tr><td><div>False</div></td></tr><tr><td><div>http://www.web2py.com/examples/default/support</div></td></tr></table></div></td></tr><tr><td><div><table><tr><td><div>Demostraci\xc3\xb3n</div></td></tr><tr><td><div>False</div></td></tr><tr><td><div>http://web2py.com/demo_admin</div></td></tr></table></div></td></tr><tr><td><div><table><tr><td><div>Ejemplos R\xc3\xa1pidos</div></td></tr><tr><td><div>False</div></td></tr><tr><td><div>http://web2py.com/examples/default/examples</div></td></tr></table></div></td></tr><tr><td><div><table><tr><td><div>FAQ</div></td></tr><tr><td><div>False</div></td></tr><tr><td><div>http://web2py.com/AlterEgo</div></td></tr></table></div></td></tr><tr><td><div><table><tr><td><div>V\xc3\xaddeos</div></td></tr><tr><td><div>False</div></td></tr><tr><td><div>http://www.web2py.com/examples/default/videos/</div></td></tr></table></div></td></tr><tr><td><div><table><tr><td><div>Aplicaciones Libres</div></td></tr><tr><td><div>False</div></td></tr><tr><td><div>http://web2py.com/appliances</div></td></tr></table></div></td></tr><tr><td><div><table><tr><td><div>Plugins</div></td></tr><tr><td><div>False</div></td></tr><tr><td><div>http://web2py.com/plugins</div></td></tr></table></div></td></tr><tr><td><div><table><tr><td><div>Recetas</div></td></tr><tr><td><div>False</div></td></tr><tr><td><div>http://web2pyslices.com/</div></td></tr></table></div></td></tr></table></div></td></tr></table></div></td></tr><tr><td><div><table><tr><td><div>Documentaci\xc3\xb3n</div></td></tr><tr><td><div>False</div></td></tr><tr><td><div>#</div></td></tr><tr><td><div><table><tr><td><div><table><tr><td><div>Online book</div></td></tr><tr><td><div>False</div></td></tr><tr><td><div>http://www.web2py.com/book</div></td></tr></table></div></td></tr><tr><td><div><li class="divider"></li></div></td></tr><tr><td><div><table><tr><td><div>Prefacio</div></td></tr><tr><td><div>False</div></td></tr><tr><td><div>http://www.web2py.com/book/default/chapter/00</div></td></tr></table></div></td></tr><tr><td><div><table><tr><td><div>Introducci\xc3\xb3n</div></td></tr><tr><td><div>False</div></td></tr><tr><td><div>http://www.web2py.com/book/default/chapter/01</div></td></tr></table></div></td></tr><tr><td><div><table><tr><td><div>Python</div></td></tr><tr><td><div>False</div></td></tr><tr><td><div>http://www.web2py.com/book/default/chapter/02</div></td></tr></table></div></td></tr><tr><td><div><table><tr><td><div>Resumen</div></td></tr><tr><td><div>False</div></td></tr><tr><td><div>http://www.web2py.com/book/default/chapter/03</div></td></tr></table></div></td></tr><tr><td><div><table><tr><td><div>El N\xc3\xbacleo</div></td></tr><tr><td><div>False</div></td></tr><tr><td><div>http://www.web2py.com/book/default/chapter/04</div></td></tr></table></div></td></tr><tr><td><div><table><tr><td><div>Las Vistas</div></td></tr><tr><td><div>False</div></td></tr><tr><td><div>http://www.web2py.com/book/default/chapter/05</div></td></tr></table></div></td></tr><tr><td><div><table><tr><td><div>Base de datos</div></td></tr><tr><td><div>False</div></td></tr><tr><td><div>http://www.web2py.com/book/default/chapter/06</div></td></tr></table></div></td></tr><tr><td><div><table><tr><td><div>Formularios y validadores</div></td></tr><tr><td><div>False</div></td></tr><tr><td><div>http://www.web2py.com/book/default/chapter/07</div></td></tr></table></div></td></tr><tr><td><div><table><tr><td><div>Correo electr\xc3\xb3nico y SMS</div></td></tr><tr><td><div>False</div></td></tr><tr><td><div>http://www.web2py.com/book/default/chapter/08</div></td></tr></table></div></td></tr><tr><td><div><table><tr><td><div>Control de Acceso</div></td></tr><tr><td><div>False</div></td></tr><tr><td><div>http://www.web2py.com/book/default/chapter/09</div></td></tr></table></div></td></tr><tr><td><div><table><tr><td><div>Servicios</div></td></tr><tr><td><div>False</div></td></tr><tr><td><div>http://www.web2py.com/book/default/chapter/10</div></td></tr></table></div></td></tr><tr><td><div><table><tr><td><div>Recetas AJAX</div></td></tr><tr><td><div>False</div></td></tr><tr><td><div>http://www.web2py.com/book/default/chapter/11</div></td></tr></table></div></td></tr><tr><td><div><table><tr><td><div>Componentes y Plugins</div></td></tr><tr><td><div>False</div></td></tr><tr><td><div>http://www.web2py.com/book/default/chapter/12</div></td></tr></table></div></td></tr><tr><td><div><table><tr><td><div>Recetas de despliegue</div></td></tr><tr><td><div>False</div></td></tr><tr><td><div>http://www.web2py.com/book/default/chapter/13</div></td></tr></table></div></td></tr><tr><td><div><table><tr><td><div>Otras Recetas</div></td></tr><tr><td><div>False</div></td></tr><tr><td><div>http://www.web2py.com/book/default/chapter/14</div></td></tr></table></div></td></tr><tr><td><div><table><tr><td><div>Helping web2py</div></td></tr><tr><td><div>False</div></td></tr><tr><td><div>http://www.web2py.com/book/default/chapter/15</div></td></tr></table></div></td></tr><tr><td><div><table><tr><td><div>Buy web2py\'s book</div></td></tr><tr><td><div>False</div></td></tr><tr><td><div>http://stores.lulu.com/web2py</div></td></tr></table></div></td></tr></table></div></td></tr></table></div></td></tr><tr><td><div><table><tr><td><div>Comunidad</div></td></tr><tr><td><div>False</div></td></tr><tr><td><div>None</div></td></tr><tr><td><div><table><tr><td><div><table><tr><td><div>Grupos</div></td></tr><tr><td><div>False</div></td></tr><tr><td><div>http://www.web2py.com/examples/default/usergroups</div></td></tr></table></div></td></tr><tr><td><div><table><tr><td><div>Twitter</div></td></tr><tr><td><div>False</div></td></tr><tr><td><div>http://twitter.com/web2py</div></td></tr></table></div></td></tr><tr><td><div><table><tr><td><div>Chat en vivo</div></td></tr><tr><td><div>False</div></td></tr><tr><td><div>http://webchat.freenode.net/?channels=web2py</div></td></tr></table></div></td></tr></table></div></td></tr></table></div></td></tr></table></div></td></tr><tr><td style="font-weight:bold;vertical-align:top;">meta</td><td style="vertical-align:top;">:</td><td><div><table><tr><td style="font-weight:bold;vertical-align:top;">author</td><td style="vertical-align:top;">:</td><td><div>Your Name &lt;you@example.com&gt;</div></td></tr><tr><td style="font-weight:bold;vertical-align:top;">description</td><td style="vertical-align:top;">:</td><td><div>a cool new app</div></td></tr><tr><td style="font-weight:bold;vertical-align:top;">generator</td><td style="vertical-align:top;">:</td><td><div>Web2py Web Framework</div></td></tr><tr><td style="font-weight:bold;vertical-align:top;">keywords</td><td style="vertical-align:top;">:</td><td><div><table><tr><td><div>web2py</div></td></tr><tr><td><div>python</div></td></tr><tr><td><div>framework</div></td></tr></table></div></td></tr></table></div></td></tr><tr><td style="font-weight:bold;vertical-align:top;">models_to_run</td><td style="vertical-align:top;">:</td><td><div><table><tr><td><div>^\\w+\\.py$</div></td></tr><tr><td><div>^default/\\w+\\.py$</div></td></tr><tr><td><div>^default/historial/\\w+\\.py$</div></td></tr></table></div></td></tr><tr><td style="font-weight:bold;vertical-align:top;">postprocessing</td><td style="vertical-align:top;">:</td><td><div><table></table></div></td></tr><tr><td style="font-weight:bold;vertical-align:top;">session_client</td><td style="vertical-align:top;">:</td><td><div>127.0.0.1</div></td></tr><tr><td style="font-weight:bold;vertical-align:top;">session_cookie_compression_level</td><td style="vertical-align:top;">:</td><td><div>None</div></td></tr><tr><td style="font-weight:bold;vertical-align:top;">session_cookie_expires</td><td style="vertical-align:top;">:</td><td><div>None</div></td></tr><tr><td style="font-weight:bold;vertical-align:top;">session_data_name</td><td style="vertical-align:top;">:</td><td><div>session_data_deteni2</div></td></tr><tr><td style="font-weight:bold;vertical-align:top;">session_file</td><td style="vertical-align:top;">:</td><td><div>&lt;open file &#x27;D:\\\\backup servidor\\\\uli\\\\web2py\\\\web2py\\\\applications\\\\deteni2\\\\sessions\\\\061\\\\0bc\\\\127.0.0.1-0ebac227-a664-48db-984b-3f443a1a1b82&#x27;, mode &#x27;rb+&#x27; at 0x0760D230&gt;</div></td></tr><tr><td style="font-weight:bold;vertical-align:top;">session_filename</td><td style="vertical-align:top;">:</td><td><div>D:\\backup servidor\\uli\\web2py\\web2py\\applications\\deteni2\\sessions\\127.0.0.1-0ebac227-a664-48db-984b-3f443a1a1b82</div></td></tr><tr><td style="font-weight:bold;vertical-align:top;">session_hash</td><td style="vertical-align:top;">:</td><td><div>6c0bc80084e40e5abc7bf526c0aa1b02</div></td></tr><tr><td style="font-weight:bold;vertical-align:top;">session_id</td><td style="vertical-align:top;">:</td><td><div>127.0.0.1-0ebac227-a664-48db-984b-3f443a1a1b82</div></td></tr><tr><td style="font-weight:bold;vertical-align:top;">session_id_name</td><td style="vertical-align:top;">:</td><td><div>session_id_deteni2</div></td></tr><tr><td style="font-weight:bold;vertical-align:top;">session_locked</td><td style="vertical-align:top;">:</td><td><div>True</div></td></tr><tr><td style="font-weight:bold;vertical-align:top;">session_masterapp</td><td style="vertical-align:top;">:</td><td><div>deteni2</div></td></tr><tr><td style="font-weight:bold;vertical-align:top;">session_new</td><td style="vertical-align:top;">:</td><td><div>False</div></td></tr><tr><td style="font-weight:bold;vertical-align:top;">session_storage_type</td><td style="vertical-align:top;">:</td><td><div>file</div></td></tr><tr><td style="font-weight:bold;vertical-align:top;">status</td><td style="vertical-align:top;">:</td><td><div>200</div></td></tr><tr><td style="font-weight:bold;vertical-align:top;">subtitle</td><td style="vertical-align:top;">:</td><td><div></div></td></tr><tr><td style="font-weight:bold;vertical-align:top;">title</td><td style="vertical-align:top;">:</td><td><div>Deteni2</div></td></tr><tr><td style="font-weight:bold;vertical-align:top;">view</td><td style="vertical-align:top;">:</td><td><div>default/historial.html</div></td></tr></table></div>'
tRp460
sS'locals'
p461
(dp462
S'field_type'
p463
S"'integer'"
p464
sS'self'
p465
S'<pydal.adapters.sqlite.SQLiteAdapter object>'
p466
sS'value'
p467
S"''"
p468
sssS'traceback'
p469
S'Traceback (most recent call last):\n  File "D:\\backup servidor\\uli\\web2py\\web2py\\gluon\\restricted.py", line 227, in restricted\n    exec ccode in environment\n  File "D:\\backup servidor\\uli\\web2py\\web2py\\applications\\deteni2\\controllers/default.py", line 541, in <module>\n  File "D:\\backup servidor\\uli\\web2py\\web2py\\gluon\\globals.py", line 417, in <lambda>\n    self._caller = lambda f: f()\n  File "D:\\backup servidor\\uli\\web2py\\web2py\\applications\\deteni2\\controllers/default.py", line 374, in historial\n    grid = SQLFORM.smartgrid(db.deteni2, linked_tables=[\'historial\'],deletable=False,paginate=10,editable=False,upload=\'<default>\')\n  File "D:\\backup servidor\\uli\\web2py\\web2py\\gluon\\sqlhtml.py", line 3102, in smartgrid\n    user_signature=user_signature, **kwargs)\n  File "D:\\backup servidor\\uli\\web2py\\web2py\\gluon\\sqlhtml.py", line 2762, in grid\n    nvalue = repr_cache(field, value, row)\n  File "D:\\backup servidor\\uli\\web2py\\web2py\\gluon\\sqlhtml.py", line 85, in __call__\n    nvalue = field.represent(value, row)\n  File "D:\\backup servidor\\uli\\web2py\\web2py\\gluon\\packages\\dal\\pydal\\helpers\\methods.py", line 265, in __call__\n    return value if value is None else _fieldformat(self.ref, value)\n  File "D:\\backup servidor\\uli\\web2py\\web2py\\gluon\\packages\\dal\\pydal\\helpers\\methods.py", line 249, in _fieldformat\n    row = r(id)\n  File "D:\\backup servidor\\uli\\web2py\\web2py\\gluon\\packages\\dal\\pydal\\objects.py", line 535, in __call__\n    orderby_on_limitby=False).first()\n  File "D:\\backup servidor\\uli\\web2py\\web2py\\gluon\\packages\\dal\\pydal\\objects.py", line 2020, in select\n    return adapter.select(self.query, fields, attributes)\n  File "D:\\backup servidor\\uli\\web2py\\web2py\\gluon\\packages\\dal\\pydal\\adapters\\sqlite.py", line 123, in select\n    return super(SQLiteAdapter, self).select(query, fields, attributes)\n  File "D:\\backup servidor\\uli\\web2py\\web2py\\gluon\\packages\\dal\\pydal\\adapters\\base.py", line 1296, in select\n    return self._select_aux(sql,fields,attributes)\n  File "D:\\backup servidor\\uli\\web2py\\web2py\\gluon\\packages\\dal\\pydal\\adapters\\base.py", line 1277, in _select_aux\n    return processor(rows,fields,self._colnames,cacheable=cacheable)\n  File "D:\\backup servidor\\uli\\web2py\\web2py\\gluon\\packages\\dal\\pydal\\adapters\\base.py", line 1767, in parse\n    for row in rows]\n  File "D:\\backup servidor\\uli\\web2py\\web2py\\gluon\\packages\\dal\\pydal\\adapters\\base.py", line 1677, in _parse\n    value = self.parse_value(value, ft, blob_decode)\n  File "D:\\backup servidor\\uli\\web2py\\web2py\\gluon\\packages\\dal\\pydal\\adapters\\base.py", line 1527, in parse_value\n    return self.parsemap[key](value,field_type)\n  File "D:\\backup servidor\\uli\\web2py\\web2py\\gluon\\packages\\dal\\pydal\\adapters\\base.py", line 1625, in parse_integer\n    return long(value)\nValueError: invalid literal for long() with base 10: \'\'\n'
p470
s.