(dp1
S'output'
p2
S"<type 'exceptions.Exception'> Validation error, field:foto_perfil <class 'gluon.validators.IS_EMPTY_OR'>"
p3
sS'layer'
p4
S'D:\\backup servidor\\uli\\web2py\\web2py\\applications\\deteni2\\controllers/default.py'
p5
sS'code'
p6
S'\ndef index():\n    return dict()\n\ndef consulta1():\n    form=SQLFORM.factory(Field(\'dni\',\'integer\',length=12,requires=IS_NOT_EMPTY()))\n    if form.accepts(request.vars,session):\n        response.flash="formulario aceptado"\n        redirect(URL(\'proceso_consul1\', args=[form.vars.dni]))\n    elif form.errors:\n            response.flash="formulario inv\xc3\xa1lido"\n    else:\n        response.flash="por favor complete el formulario"\n    return dict(form=form)   \n\n\ndef proceso_consul1():\n    atrapa = request.args[0]\n    \n    consulta = (db.deteni2.dni==atrapa)\n    miset = db(consulta)\n    registros = miset.select()\n    \n\n\n\n\n    a = miset.count() \n\n    if a == 0:\n         redirect(URL(\'sin_dni\', args=[atrapa]))\n    \n\n\n\n    return dict(a=a, atrapa=atrapa, registros=registros)\n    \ndef proceso_consul2():\n    id_detenido = request.args[0]\n    atrapa =request.vars.dni\n    \n    consulta = (db.deteni2.dni==atrapa)\n    miset = db(consulta)\n    registros = miset.select()\n    for i in registros:\n        print i.id\n    \n    crud.settings.update_next = URL(f=\'index\', args=[atrapa])\n    form = crud.update(db.deteni2, id_detenido) #esto me permite  modificar un row pero antes hay importar un crud en db.py en gluon\n    if form.accepts(request.vars,session):\n        response.flash="formulario aceptado"\n\n        redirect(URL(\'proceso_consul1\', args=[form.vars.persona, request.args[1]]))\n    \n    \n\n\n    return dict(atrapa=atrapa,consulta=consulta,registros=registros,miset=miset, form=form)\ndef sin_dni():\n    atrapa= request.args[0]\n\n\n\n\n\n\n\n    \n    return dict(atrapa=atrapa)\n\n\n                                        \n                    \n\ndef deteni2():\n    \n    \n    atrapa=request.args[0]\n    db.deteni2.dni.default=request.args[0]\n\n    form = SQLFORM(db.deteni2)\n\n    \n    \n    \n    \n\n\n    \n    \n        \n      \n    if form.process().accepted:\n        \n    \n\n       \n\n\n      \n      \n      \n\n        \n        \n        response.flash = \'Formulario Aceptado\'\n        redirect(URL(c=\'default\', f=\'ingreso\',args=[form.vars.id]))\n    elif form.errors:\n        response.flash = \'El formulario es inv\xc3\xa1lido verifique\'\n    return dict(form=form,atrapa=atrapa,)\n\n\ndef ingreso():\n    \n\n\n    #atrapo el argumento id\n    atrapa =request.args[0]\n    consulta = (db.deteni2.id==atrapa)\n    miset = db(consulta)\n    registros = miset.select()\n    i=registros\n\n    \n    #atrapo el dia de hoy\n    ed=datetime.date.today()\n    edad=0\n    \n    \n\n    #capturo la fecha de nacimiento\n    for x in i:\n        fecha=x.fecha_naci\n    #calculo la edad\n    edad=(ed.year)-(fecha.year)\n\n    \n\n\n    \n\n    db.ingreso.persona.default = request.args[0] #-- Coloco el nombre de la agencia ya en el campo correspondiente\n\n\n    \n    form = SQLFORM(db.ingreso)\n    c=form.vars.id\n    \n    form.add_button(\'agregar nuevos valores\', URL(\'nuevas_dependencias,\'))\n    #realizo la consulta del id de la persona para mandar la edad\n    d=db(db.deteni2.id==atrapa).select().first()\n    \n    if form.process().accepted:\n        response.flash = \'Formulario Aceptado\'\n\n        \n\n        #envio la edad a la persona\n        d.update_record(edad=edad)\n        #actualizo el ultimo registro\n\n\n       \n        db.historial.insert(persona=atrapa,comisaria=form.vars.comisaria,organismos=form.vars.organismos,delitos=form.vars.delitos,comentario=form.vars.comentario,es=form.vars.es,calidad=form.vars.calidad,comentarios=form.vars.comentarios,horario=form.vars.horario)\n        \n        \n        redirect(URL(c=\'default\', f=\'index\'))\n\n\n\n        \n\n\n        \n         \n    \n    \n   \n\n\n\n\n\n\n    \n    return dict(form=form,ed=ed, atrapa=atrapa,miset=miset,registros=registros,consulta=consulta,i=i,x=x,fecha=fecha,edad=edad,d=d)\n\n\n\n\ndef nuevas_dependencias():\n\n        \n    return dict()\ndef nueva_comisaria():\n    form = SQLFORM(db.dependencias_polciales)\n    if form.process().accepted:\n        response.flash = \'Formulario Aceptado\'\n        redirect(URL(c=\'default\', f=\'index\'))\n\n        \n    \n\n    return dict(form=form)\ndef nueva_judicial():\n    form = SQLFORM(db.dependencias_organismos)\n    if form.process().accepted:\n        response.flash = \'Formulario Aceptado\'\n        redirect(URL(c=\'default\', f=\'index\'))\n\n\n    return dict(form=form)\n    \ndef nuevos_delitos():\n    form = SQLFORM(db.delito)\n    if form.process().accepted:\n        response.flash = \'Formulario Aceptado\'\n        redirect(URL(c=\'default\', f=\'index\'))\n    return dict(form=form)\n\n\n\n\n    \n\n\n\ndef nuevas_dep_pol():\n    form = SQLFORM(db.dependencias_polciales)\n    if form.process().accepted:\n        response.flash = \'Formulario Aceptado\'\n    elif form.errors:\n        response.flash = \'El formulario es inv\xc3\xa1lido verifique\'\n    return dict(form=form)\n\ndef nuevas_dep_judi():\n    form = SQLFORM(db.dependencias_organismos)\n    if form.process().accepted:\n        response.flash = \'Formulario Aceptado\'\n    elif form.errors:\n        response.flash = \'El formulario es inv\xc3\xa1lido verifique\'\n    return dict(form=form)\n    \ndef nuevos_delitos():\n    form = SQLFORM(db.delito)\n    if form.process().accepted:\n        response.flash = \'Formulario Aceptado\'\n    elif form.errors:\n        response.flash = \'El formulario es inv\xc3\xa1lido verifique\'\n    return dict(form=form)\n\n \n\n\n\n\n\n\ndef proceso_consul3():\n    atrapa = request.args[0]\n    query=db(db.deteni2.dni==atrapa).select().first()\n    \n    consulta = (db.deteni2.dni==atrapa)\n    miset = db(consulta)\n    registros = miset.select()\n    form=SQLFORM.grid(db.registros)\n    \n\n\n\n\n    a = miset.count() \n    if a == 0:\n\n    \n        redirect(URL(\'sin_dni\', args=[atrapa]))\n        \n        \n\n\n\n   \n\n    return dict(query=query,miset=miset,a=a,consulta=consulta,atrapa=atrapa,registros=registros,grid=grid)\n\n\n\n\ndef sin2_dni():\n    atrapa=request.args[0]\n    redirect(URL(\'ingreso\', args=[atrapa]))\n\n\n    \n    \n        \n  \n\n       \n   \n     \n \n   \n    return dict(atrapa=atrapa) \n\n\n\ndef consulta():\n    \n    \n\n\n    query=db((db.ingreso.es != "salida")&(db.ingreso.calidad != "LIBERTAD"))#&(db.ingreso.horario==hora_max))\n    \n\n    \n    grid = SQLFORM.grid(query,deletable=False,paginate=20,sortable=True,editable=False,\n        links=[lambda r: editar_expediente(r)])\n    return locals()\n\n\n\n    \n    \n\n    \n    \n\n        \n    \n\n    return dict(grid=grid,query=query)#hora_max=hora_max)\n\ndef search_form(self,url): \n    form = FORM(\'\',\n    INPUT(_name=\'keywords\',_value=request.get_vars.keywords, \n               _style=\'width:200px;\', \n               _id=\'keywords\'), \n\n\n         INPUT(_type=\'submit\',_value=T(\'Search\')), \n         INPUT(_type=\'submit\',_value=T(\'Clear\'),\n\n         _onclick="jQuery(\'#keywords\').val(\'\');"), \n         _method="GET",_action=url) \n    return form \ndef search_query(tableid,search_text,fields): \n    words= search_text.split(\' \') if search_text else [] \n    query=tableid<0#empty query \n    for field in fields: \n        new_query=tableid>0 \n        for word in words: \n            new_query=new_query&field.contains(word) \n        query=query|new_query \n    return query\n\n\ndef historial():\n    \n\n    grid = SQLFORM.smartgrid(db.deteni2, linked_tables=[\'historial\'],\n        deletable=False,\n        paginate=20,editable=False,\n        create=False,\n        csv=False,\n        searchable=True,\n        search_widget=search_form,\n        user_signature=False,\n\n       \n        selectable=None,\n        upload=\'<default>\')\n    # Cambiando la clase para el bot\xc3\xb3n submit.\n    if grid.element(\'input\', _type=\'submit\'):\n        grid.element(\'input\', _type=\'submit\')[\'_class\'] = \'btn btn-primary\'\n    return dict(grid = grid)\n       \n        \n\n\n\n    \n\n    \n    \n\n    \n#agregar boton al grid\n#creando el boton    \ndef editar_expediente(row):\n        btn = A(I(_class=\'icon-thumbs-up\'),\n                    \' CAMBIAR ESTADO\',\n                    _href=URL(c=\'default\', f=\'libertad\', args=[row.id]),\n                    _class=\'btn btn-primary\')\n        return btn     \n\ndef libertad():\n     #atrapo argumento\n    atrapa =request.args[0]\n\n    #saco los datos para cargar los datos que necesito\n    v = db(db.ingreso.id == atrapa).select(db.ingreso.ALL)\n    for a in v: \n        p=a.persona\n        c=a.comisaria\n        o=a.organismos\n        d=a.delitos\n        co=a.comentario\n        es=a.es\n        ca=a.calidad\n        cos=a.comentarios\n        \n\n\n\n        \n\n\n       \n\n\n \n            \n    \n    \n    \n\n\n   \n\n        #cologo con valores rescatados en los campos del formulario\n        db.ingreso.persona.default = p         #-- Coloco el nombre de la agencia ya en el campo correspondiente\n        db.ingreso.comisaria.default = c\n        db.ingreso.organismos.default = o\n        db.ingreso.delitos.default = d\n        db.ingreso.comentario.default= co\n        \n        db.ingreso.calidad.default = ca\n\n        \n        \n\n        \n        \n\n\n        \n\n\n        \n\n\n\n\n    \n    \n    \n    \n    \n  \n  \n   \n\n    \n    \n    #re\n\n    \n    registro = db(db.ingreso.id==atrapa).select().first() or redirect(URL(\'index\'))\n\n\n   \n   \n    form=SQLFORM(db.ingreso,registro)\n\n    \n\n\n\n\n   \n\n\n\n    z=db(db.ingreso.id==atrapa).select().first()\n    \n    \n    \n    if form.process().accepted:\n        response.flash = \'Formulario Aceptado\'\n\n        \n\n        \n        \n        #z.update_record(comisaria=form.vars.comisaria,organismos=form.vars.organismos,comentario=form.vars.comentario,es=form.vars.es,calidad=form.vars.calidad,horario=form.vars.horario)\n        \n        db.historial.insert(persona=p,comisaria=form.vars.comisaria,\n                            organismos=form.vars.organismos,\n                            comentario=form.vars.comentario,\n                            es=form.vars.es,calidad=form.vars.calidad,\n                            horario=form.vars.horario,\n                            trasladado=form.vars.trasladado)\n            \n        \n         \n\n\n        redirect(URL(\'index\'))\n\n    \n\n        \n        \n    elif form.errors:\n        response.flash = \'El formulario es inv\xc3\xa1lido verifique\'   \n                               \n                 \n                                  \n         \n    return dict(form=form,atrapa=atrapa,v=v,a=a,p=p,c=c,o=o,es=es,ca=ca,cos=cos,d=d,z=z,registro=registro)\n\n\n    \n\n    \n\n\n\n\n        \n    \n    \n   \n    \n\n    \n    \n\n    \n    \n    \n\n\n\n\nresponse._vars=response._caller(deteni2)\n'
p7
sS'snapshot'
p8
(dp9
S'exception'
p10
(dp11
S'__hash__'
p12
S"<method-wrapper '__hash__' of exceptions.Exception object>"
p13
sS'__setattr__'
p14
S"<method-wrapper '__setattr__' of exceptions.Exception object>"
p15
sS'__reduce_ex__'
p16
S'<built-in method __reduce_ex__ of exceptions.Exception object>'
p17
sS'__getslice__'
p18
S"<method-wrapper '__getslice__' of exceptions.Exception object>"
p19
sS'__getitem__'
p20
S"<method-wrapper '__getitem__' of exceptions.Exception object>"
p21
sS'__setstate__'
p22
S'<built-in method __setstate__ of exceptions.Exception object>'
p23
sS'__reduce__'
p24
S'<built-in method __reduce__ of exceptions.Exception object>'
p25
sS'__str__'
p26
S"<method-wrapper '__str__' of exceptions.Exception object>"
p27
sS'__format__'
p28
S'<built-in method __format__ of exceptions.Exception object>'
p29
sS'__getattribute__'
p30
S"<method-wrapper '__getattribute__' of exceptions.Exception object>"
p31
sS'__class__'
p32
S"<type 'exceptions.Exception'>"
p33
sS'__unicode__'
p34
S'<built-in method __unicode__ of exceptions.Exception object>'
p35
sS'__delattr__'
p36
S"<method-wrapper '__delattr__' of exceptions.Exception object>"
p37
sS'__subclasshook__'
p38
S'<built-in method __subclasshook__ of type object>'
p39
sS'__repr__'
p40
S"<method-wrapper '__repr__' of exceptions.Exception object>"
p41
sS'args'
p42
S'("Validation error, field:foto_perfil <class \'gluon.validators.IS_EMPTY_OR\'>",)'
p43
sS'__dict__'
p44
S'{}'
p45
sS'__sizeof__'
p46
S'<built-in method __sizeof__ of exceptions.Exception object>'
p47
sS'__doc__'
p48
S"'Common base class for all non-exit exceptions.'"
p49
sS'__init__'
p50
S"<method-wrapper '__init__' of exceptions.Exception object>"
p51
sS'__new__'
p52
S'<built-in method __new__ of type object>'
p53
ssS'evalue'
p54
S"Validation error, field:foto_perfil <class 'gluon.validators.IS_EMPTY_OR'>"
p55
sS'request'
p56
cgluon.html
XML_unpickle
p57
(S's\xd5h\x00\x00<div><table><tr><td style="font-weight:bold;vertical-align:top;">ajax</td><td style="vertical-align:top;">:</td><td><div>False</div></td></tr><tr><td style="font-weight:bold;vertical-align:top;">application</td><td style="vertical-align:top;">:</td><td><div>deteni2</div></td></tr><tr><td style="font-weight:bold;vertical-align:top;">args</td><td style="vertical-align:top;">:</td><td><div><table><tr><td><div>365</div></td></tr></table></div></td></tr><tr><td style="font-weight:bold;vertical-align:top;">cid</td><td style="vertical-align:top;">:</td><td><div>None</div></td></tr><tr><td style="font-weight:bold;vertical-align:top;">client</td><td style="vertical-align:top;">:</td><td><div>127.0.0.1</div></td></tr><tr><td style="font-weight:bold;vertical-align:top;">controller</td><td style="vertical-align:top;">:</td><td><div>default</div></td></tr><tr><td style="font-weight:bold;vertical-align:top;">cookies</td><td style="vertical-align:top;">:</td><td><div><table><tr><td style="font-weight:bold;vertical-align:top;">session_id_admin</td><td style="vertical-align:top;">:</td><td><div>127.0.0.1-67c63fdd-2963-4cbd-a415-f64a5dd48f76<table><tr><td style="font-weight:bold;vertical-align:top;">comment</td><td style="vertical-align:top;">:</td><td><div></div></td></tr><tr><td style="font-weight:bold;vertical-align:top;">domain</td><td style="vertical-align:top;">:</td><td><div></div></td></tr><tr><td style="font-weight:bold;vertical-align:top;">expires</td><td style="vertical-align:top;">:</td><td><div></div></td></tr><tr><td style="font-weight:bold;vertical-align:top;">httponly</td><td style="vertical-align:top;">:</td><td><div></div></td></tr><tr><td style="font-weight:bold;vertical-align:top;">max-age</td><td style="vertical-align:top;">:</td><td><div></div></td></tr><tr><td style="font-weight:bold;vertical-align:top;">path</td><td style="vertical-align:top;">:</td><td><div></div></td></tr><tr><td style="font-weight:bold;vertical-align:top;">secure</td><td style="vertical-align:top;">:</td><td><div></div></td></tr><tr><td style="font-weight:bold;vertical-align:top;">version</td><td style="vertical-align:top;">:</td><td><div></div></td></tr></table></div></td></tr><tr><td style="font-weight:bold;vertical-align:top;">session_id_calabozo</td><td style="vertical-align:top;">:</td><td><div>127.0.0.1-c37f227e-c6cb-43d2-9def-a0b24e04bab6<table><tr><td style="font-weight:bold;vertical-align:top;">comment</td><td style="vertical-align:top;">:</td><td><div></div></td></tr><tr><td style="font-weight:bold;vertical-align:top;">domain</td><td style="vertical-align:top;">:</td><td><div></div></td></tr><tr><td style="font-weight:bold;vertical-align:top;">expires</td><td style="vertical-align:top;">:</td><td><div></div></td></tr><tr><td style="font-weight:bold;vertical-align:top;">httponly</td><td style="vertical-align:top;">:</td><td><div></div></td></tr><tr><td style="font-weight:bold;vertical-align:top;">max-age</td><td style="vertical-align:top;">:</td><td><div></div></td></tr><tr><td style="font-weight:bold;vertical-align:top;">path</td><td style="vertical-align:top;">:</td><td><div></div></td></tr><tr><td style="font-weight:bold;vertical-align:top;">secure</td><td style="vertical-align:top;">:</td><td><div></div></td></tr><tr><td style="font-weight:bold;vertical-align:top;">version</td><td style="vertical-align:top;">:</td><td><div></div></td></tr></table></div></td></tr><tr><td style="font-weight:bold;vertical-align:top;">session_id_deteni2</td><td style="vertical-align:top;">:</td><td><div>127.0.0.1-8d0bd818-b57e-4b3a-9637-24e51a516584<table><tr><td style="font-weight:bold;vertical-align:top;">comment</td><td style="vertical-align:top;">:</td><td><div></div></td></tr><tr><td style="font-weight:bold;vertical-align:top;">domain</td><td style="vertical-align:top;">:</td><td><div></div></td></tr><tr><td style="font-weight:bold;vertical-align:top;">expires</td><td style="vertical-align:top;">:</td><td><div></div></td></tr><tr><td style="font-weight:bold;vertical-align:top;">httponly</td><td style="vertical-align:top;">:</td><td><div></div></td></tr><tr><td style="font-weight:bold;vertical-align:top;">max-age</td><td style="vertical-align:top;">:</td><td><div></div></td></tr><tr><td style="font-weight:bold;vertical-align:top;">path</td><td style="vertical-align:top;">:</td><td><div></div></td></tr><tr><td style="font-weight:bold;vertical-align:top;">secure</td><td style="vertical-align:top;">:</td><td><div></div></td></tr><tr><td style="font-weight:bold;vertical-align:top;">version</td><td style="vertical-align:top;">:</td><td><div></div></td></tr></table></div></td></tr><tr><td style="font-weight:bold;vertical-align:top;">session_id_welcome</td><td style="vertical-align:top;">:</td><td><div>127.0.0.1-d6645da3-61e8-45aa-9a3a-6618d32ec56f<table><tr><td style="font-weight:bold;vertical-align:top;">comment</td><td style="vertical-align:top;">:</td><td><div></div></td></tr><tr><td style="font-weight:bold;vertical-align:top;">domain</td><td style="vertical-align:top;">:</td><td><div></div></td></tr><tr><td style="font-weight:bold;vertical-align:top;">expires</td><td style="vertical-align:top;">:</td><td><div></div></td></tr><tr><td style="font-weight:bold;vertical-align:top;">httponly</td><td style="vertical-align:top;">:</td><td><div></div></td></tr><tr><td style="font-weight:bold;vertical-align:top;">max-age</td><td style="vertical-align:top;">:</td><td><div></div></td></tr><tr><td style="font-weight:bold;vertical-align:top;">path</td><td style="vertical-align:top;">:</td><td><div></div></td></tr><tr><td style="font-weight:bold;vertical-align:top;">secure</td><td style="vertical-align:top;">:</td><td><div></div></td></tr><tr><td style="font-weight:bold;vertical-align:top;">version</td><td style="vertical-align:top;">:</td><td><div></div></td></tr></table></div></td></tr></table></div></td></tr><tr><td style="font-weight:bold;vertical-align:top;">env</td><td style="vertical-align:top;">:</td><td><div><table><tr><td style="font-weight:bold;vertical-align:top;">CONTENT_LENGTH</td><td style="vertical-align:top;">:</td><td><div>2214</div></td></tr><tr><td style="font-weight:bold;vertical-align:top;">CONTENT_TYPE</td><td style="vertical-align:top;">:</td><td><div>multipart/form-data; boundary=---------------------------16285310668249</div></td></tr><tr><td style="font-weight:bold;vertical-align:top;">HTTP_ACCEPT</td><td style="vertical-align:top;">:</td><td><div>text/html,application/xhtml+xml,application/xml;q=0.9,*/*;q=0.8</div></td></tr><tr><td style="font-weight:bold;vertical-align:top;">HTTP_ACCEPT_ENCODING</td><td style="vertical-align:top;">:</td><td><div>gzip, deflate</div></td></tr><tr><td style="font-weight:bold;vertical-align:top;">HTTP_ACCEPT_LANGUAGE</td><td style="vertical-align:top;">:</td><td><div>es-ES,es;q=0.8,en-US;q=0.5,en;q=0.3</div></td></tr><tr><td style="font-weight:bold;vertical-align:top;">HTTP_CONNECTION</td><td style="vertical-align:top;">:</td><td><div>keep-alive</div></td></tr><tr><td style="font-weight:bold;vertical-align:top;">HTTP_CONTENT_LENGTH</td><td style="vertical-align:top;">:</td><td><div>2214</div></td></tr><tr><td style="font-weight:bold;vertical-align:top;">HTTP_CONTENT_TYPE</td><td style="vertical-align:top;">:</td><td><div>multipart/form-data; boundary=---------------------------16285310668249</div></td></tr><tr><td style="font-weight:bold;vertical-align:top;">HTTP_COOKIE</td><td style="vertical-align:top;">:</td><td><div>session_id_welcome=127.0.0.1-d6645da3-61e8-45aa-9a3a-6618d32ec56f; session_id_admin=127.0.0.1-67c63fdd-2963-4cbd-a415-f64a5dd48f76; session_id_calabozo=127.0.0.1-c37f227e-c6cb-43d2-9def-a0b24e04bab6; session_id_deteni2=127.0.0.1-8d0bd818-b57e-4b3a-9637-24e51a516584</div></td></tr><tr><td style="font-weight:bold;vertical-align:top;">HTTP_DNT</td><td style="vertical-align:top;">:</td><td><div>1</div></td></tr><tr><td style="font-weight:bold;vertical-align:top;">HTTP_HOST</td><td style="vertical-align:top;">:</td><td><div>127.0.0.1:8000</div></td></tr><tr><td style="font-weight:bold;vertical-align:top;">HTTP_REFERER</td><td style="vertical-align:top;">:</td><td><div>http://127.0.0.1:8000/deteni2/default/deteni2/365</div></td></tr><tr><td style="font-weight:bold;vertical-align:top;">HTTP_UPGRADE_INSECURE_REQUESTS</td><td style="vertical-align:top;">:</td><td><div>1</div></td></tr><tr><td style="font-weight:bold;vertical-align:top;">HTTP_USER_AGENT</td><td style="vertical-align:top;">:</td><td><div>Mozilla/5.0 (Windows NT 6.1; rv:50.0) Gecko/20100101 Firefox/50.0</div></td></tr><tr><td style="font-weight:bold;vertical-align:top;">PATH_INFO</td><td style="vertical-align:top;">:</td><td><div>/deteni2/default/deteni2/365</div></td></tr><tr><td style="font-weight:bold;vertical-align:top;">QUERY_STRING</td><td style="vertical-align:top;">:</td><td><div></div></td></tr><tr><td style="font-weight:bold;vertical-align:top;">REMOTE_ADDR</td><td style="vertical-align:top;">:</td><td><div>127.0.0.1</div></td></tr><tr><td style="font-weight:bold;vertical-align:top;">REMOTE_PORT</td><td style="vertical-align:top;">:</td><td><div>2512</div></td></tr><tr><td style="font-weight:bold;vertical-align:top;">REQUEST_METHOD</td><td style="vertical-align:top;">:</td><td><div>POST</div></td></tr><tr><td style="font-weight:bold;vertical-align:top;">SCRIPT_NAME</td><td style="vertical-align:top;">:</td><td><div></div></td></tr><tr><td style="font-weight:bold;vertical-align:top;">SERVER_NAME</td><td style="vertical-align:top;">:</td><td><div>Policia-PC</div></td></tr><tr><td style="font-weight:bold;vertical-align:top;">SERVER_PORT</td><td style="vertical-align:top;">:</td><td><div>8000</div></td></tr><tr><td style="font-weight:bold;vertical-align:top;">SERVER_PROTOCOL</td><td style="vertical-align:top;">:</td><td><div>HTTP/1.1</div></td></tr><tr><td style="font-weight:bold;vertical-align:top;">SERVER_SOFTWARE</td><td style="vertical-align:top;">:</td><td><div>Rocket 1.2.6</div></td></tr><tr><td style="font-weight:bold;vertical-align:top;">app_folders</td><td style="vertical-align:top;">:</td><td><div>set([&#x27;D:\\\\backup servidor\\\\uli\\\\web2py\\\\web2py\\\\applications\\\\calabozo\\\\&#x27;, &#x27;D:\\\\backup servidor\\\\uli\\\\web2py\\\\web2py\\\\applications\\\\deteni2\\\\&#x27;, &#x27;D:\\\\backup servidor\\\\uli\\\\web2py\\\\web2py\\\\applications\\\\admin\\\\&#x27;, &#x27;D:\\\\backup servidor\\\\uli\\\\web2py\\\\web2py\\\\applications\\\\welcome\\\\&#x27;])</div></td></tr><tr><td style="font-weight:bold;vertical-align:top;">applications_parent</td><td style="vertical-align:top;">:</td><td><div>D:\\backup servidor\\uli\\web2py\\web2py</div></td></tr><tr><td style="font-weight:bold;vertical-align:top;">cmd_args</td><td style="vertical-align:top;">:</td><td><div><table></table></div></td></tr><tr><td style="font-weight:bold;vertical-align:top;">cmd_options</td><td style="vertical-align:top;">:</td><td><div>&lt;Values at 0x25a5eb8: {&#x27;verbose&#x27;: False, &#x27;ip&#x27;: &#x27;127.0.0.1&#x27;, &#x27;debuglevel&#x27;: 30, &#x27;with_scheduler&#x27;: False, &#x27;shutdown_timeout&#x27;: 5, &#x27;taskbar&#x27;: False, &#x27;with_coverage&#x27;: False, &#x27;pid_filename&#x27;: &#x27;httpserver.pid&#x27;, &#x27;maxthreads&#x27;: None, &#x27;softcron&#x27;: False, &#x27;server_name&#x27;: &#x27;Policia-PC&#x27;, &#x27;bpython&#x27;: False, &#x27;nogui&#x27;: False, &#x27;port&#x27;: 8000, &#x27;print_errors&#x27;: False, &#x27;extcron&#x27;: False, &#x27;runcron&#x27;: False, &#x27;run_system_tests&#x27;: False, &#x27;test&#x27;: None, &#x27;folder&#x27;: &#x27;D:\\\\backup servidor\\\\uli\\\\web2py\\\\web2py&#x27;, &#x27;config&#x27;: &#x27;&#x27;, &#x27;minthreads&#x27;: None, &#x27;shell&#x27;: None, &#x27;run&#x27;: &#x27;&#x27;, &#x27;log_filename&#x27;: &#x27;httpserver.log&#x27;, &#x27;profiler_dir&#x27;: None, &#x27;args&#x27;: [&#x27;&#x27;], &#x27;socket_timeout&#x27;: 5, &#x27;ssl_ca_certificate&#x27;: None, &#x27;scheduler&#x27;: None, &#x27;interfaces&#x27;: None, &#x27;ssl_private_key&#x27;: &#x27;&#x27;, &#x27;gae&#x27;: None, &#x27;password&#x27;: &#x27;******&#x27;, &#x27;request_queue_size&#x27;: 5, &#x27;ssl_certificate&#x27;: &#x27;&#x27;, &#x27;cronjob&#x27;: False, &#x27;numthreads&#x27;: None, &#x27;quiet&#x27;: False, &#x27;import_models&#x27;: False, &#x27;timeout&#x27;: 10, &#x27;plain&#x27;: False, &#x27;nobanner&#x27;: False}&gt;</div></td></tr><tr><td style="font-weight:bold;vertical-align:top;">content_length</td><td style="vertical-align:top;">:</td><td><div>2214</div></td></tr><tr><td style="font-weight:bold;vertical-align:top;">content_type</td><td style="vertical-align:top;">:</td><td><div>multipart/form-data; boundary=---------------------------16285310668249</div></td></tr><tr><td style="font-weight:bold;vertical-align:top;">db_sessions</td><td style="vertical-align:top;">:</td><td><div>set([])</div></td></tr><tr><td style="font-weight:bold;vertical-align:top;">debugging</td><td style="vertical-align:top;">:</td><td><div>False</div></td></tr><tr><td style="font-weight:bold;vertical-align:top;">gluon_parent</td><td style="vertical-align:top;">:</td><td><div>D:\\backup servidor\\uli\\web2py\\web2py</div></td></tr><tr><td style="font-weight:bold;vertical-align:top;">http_accept</td><td style="vertical-align:top;">:</td><td><div>text/html,application/xhtml+xml,application/xml;q=0.9,*/*;q=0.8</div></td></tr><tr><td style="font-weight:bold;vertical-align:top;">http_accept_encoding</td><td style="vertical-align:top;">:</td><td><div>gzip, deflate</div></td></tr><tr><td style="font-weight:bold;vertical-align:top;">http_accept_language</td><td style="vertical-align:top;">:</td><td><div>es-ES,es;q=0.8,en-US;q=0.5,en;q=0.3</div></td></tr><tr><td style="font-weight:bold;vertical-align:top;">http_connection</td><td style="vertical-align:top;">:</td><td><div>keep-alive</div></td></tr><tr><td style="font-weight:bold;vertical-align:top;">http_content_length</td><td style="vertical-align:top;">:</td><td><div>2214</div></td></tr><tr><td style="font-weight:bold;vertical-align:top;">http_content_type</td><td style="vertical-align:top;">:</td><td><div>multipart/form-data; boundary=---------------------------16285310668249</div></td></tr><tr><td style="font-weight:bold;vertical-align:top;">http_cookie</td><td style="vertical-align:top;">:</td><td><div>session_id_welcome=127.0.0.1-d6645da3-61e8-45aa-9a3a-6618d32ec56f; session_id_admin=127.0.0.1-67c63fdd-2963-4cbd-a415-f64a5dd48f76; session_id_calabozo=127.0.0.1-c37f227e-c6cb-43d2-9def-a0b24e04bab6; session_id_deteni2=127.0.0.1-8d0bd818-b57e-4b3a-9637-24e51a516584</div></td></tr><tr><td style="font-weight:bold;vertical-align:top;">http_dnt</td><td style="vertical-align:top;">:</td><td><div>1</div></td></tr><tr><td style="font-weight:bold;vertical-align:top;">http_host</td><td style="vertical-align:top;">:</td><td><div>127.0.0.1:8000</div></td></tr><tr><td style="font-weight:bold;vertical-align:top;">http_referer</td><td style="vertical-align:top;">:</td><td><div>http://127.0.0.1:8000/deteni2/default/deteni2/365</div></td></tr><tr><td style="font-weight:bold;vertical-align:top;">http_upgrade_insecure_requests</td><td style="vertical-align:top;">:</td><td><div>1</div></td></tr><tr><td style="font-weight:bold;vertical-align:top;">http_user_agent</td><td style="vertical-align:top;">:</td><td><div>Mozilla/5.0 (Windows NT 6.1; rv:50.0) Gecko/20100101 Firefox/50.0</div></td></tr><tr><td style="font-weight:bold;vertical-align:top;">is_jython</td><td style="vertical-align:top;">:</td><td><div>False</div></td></tr><tr><td style="font-weight:bold;vertical-align:top;">is_pypy</td><td style="vertical-align:top;">:</td><td><div>False</div></td></tr><tr><td style="font-weight:bold;vertical-align:top;">is_source</td><td style="vertical-align:top;">:</td><td><div>False</div></td></tr><tr><td style="font-weight:bold;vertical-align:top;">local_hosts</td><td style="vertical-align:top;">:</td><td><div><table><tr><td><div>fe80::519f:8c80:275f:a5cd%11</div></td></tr><tr><td><div>10.20.0.89</div></td></tr><tr><td><div>::ffff:127.0.0.1</div></td></tr><tr><td><div>::1</div></td></tr><tr><td><div>Policia-PC</div></td></tr><tr><td><div>127.0.0.1</div></td></tr></table></div></td></tr><tr><td style="font-weight:bold;vertical-align:top;">path_info</td><td style="vertical-align:top;">:</td><td><div>/deteni2/default/deteni2/365</div></td></tr><tr><td style="font-weight:bold;vertical-align:top;">query_string</td><td style="vertical-align:top;">:</td><td><div></div></td></tr><tr><td style="font-weight:bold;vertical-align:top;">remote_addr</td><td style="vertical-align:top;">:</td><td><div>127.0.0.1</div></td></tr><tr><td style="font-weight:bold;vertical-align:top;">remote_port</td><td style="vertical-align:top;">:</td><td><div>2512</div></td></tr><tr><td style="font-weight:bold;vertical-align:top;">request_method</td><td style="vertical-align:top;">:</td><td><div>POST</div></td></tr><tr><td style="font-weight:bold;vertical-align:top;">request_uri</td><td style="vertical-align:top;">:</td><td><div>/deteni2/default/deteni2/365</div></td></tr><tr><td style="font-weight:bold;vertical-align:top;">script_name</td><td style="vertical-align:top;">:</td><td><div></div></td></tr><tr><td style="font-weight:bold;vertical-align:top;">server_name</td><td style="vertical-align:top;">:</td><td><div>Policia-PC</div></td></tr><tr><td style="font-weight:bold;vertical-align:top;">server_port</td><td style="vertical-align:top;">:</td><td><div>8000</div></td></tr><tr><td style="font-weight:bold;vertical-align:top;">server_protocol</td><td style="vertical-align:top;">:</td><td><div>HTTP/1.1</div></td></tr><tr><td style="font-weight:bold;vertical-align:top;">server_software</td><td style="vertical-align:top;">:</td><td><div>Rocket 1.2.6</div></td></tr><tr><td style="font-weight:bold;vertical-align:top;">web2py_path</td><td style="vertical-align:top;">:</td><td><div>D:\\backup servidor\\uli\\web2py\\web2py</div></td></tr><tr><td style="font-weight:bold;vertical-align:top;">web2py_version</td><td style="vertical-align:top;">:</td><td><div>2.14.6-stable+timestamp.2016.05.10.00.21.47</div></td></tr><tr><td style="font-weight:bold;vertical-align:top;">wsgi.errors</td><td style="vertical-align:top;">:</td><td><div>&lt;open file &#x27;&lt;stderr&gt;&#x27;, mode &#x27;w&#x27; at 0x0125D0D0&gt;</div></td></tr><tr><td style="font-weight:bold;vertical-align:top;">wsgi.file_wrapper</td><td style="vertical-align:top;">:</td><td><div>&lt;class wsgiref.util.FileWrapper at 0x0286B0D8&gt;</div></td></tr><tr><td style="font-weight:bold;vertical-align:top;">wsgi.input</td><td style="vertical-align:top;">:</td><td><div>&lt;socket._fileobject object at 0x07AD5230&gt;</div></td></tr><tr><td style="font-weight:bold;vertical-align:top;">wsgi.multiprocess</td><td style="vertical-align:top;">:</td><td><div>False</div></td></tr><tr><td style="font-weight:bold;vertical-align:top;">wsgi.multithread</td><td style="vertical-align:top;">:</td><td><div>True</div></td></tr><tr><td style="font-weight:bold;vertical-align:top;">wsgi.run_once</td><td style="vertical-align:top;">:</td><td><div>False</div></td></tr><tr><td style="font-weight:bold;vertical-align:top;">wsgi.url_scheme</td><td style="vertical-align:top;">:</td><td><div>http</div></td></tr><tr><td style="font-weight:bold;vertical-align:top;">wsgi.version</td><td style="vertical-align:top;">:</td><td><div><table><tr><td><div>1</div></td></tr><tr><td><div>0</div></td></tr></table></div></td></tr><tr><td style="font-weight:bold;vertical-align:top;">wsgi_errors</td><td style="vertical-align:top;">:</td><td><div>&lt;open file &#x27;&lt;stderr&gt;&#x27;, mode &#x27;w&#x27; at 0x0125D0D0&gt;</div></td></tr><tr><td style="font-weight:bold;vertical-align:top;">wsgi_file_wrapper</td><td style="vertical-align:top;">:</td><td><div>&lt;class wsgiref.util.FileWrapper at 0x0286B0D8&gt;</div></td></tr><tr><td style="font-weight:bold;vertical-align:top;">wsgi_input</td><td style="vertical-align:top;">:</td><td><div>&lt;socket._fileobject object at 0x07AD5230&gt;</div></td></tr><tr><td style="font-weight:bold;vertical-align:top;">wsgi_multiprocess</td><td style="vertical-align:top;">:</td><td><div>False</div></td></tr><tr><td style="font-weight:bold;vertical-align:top;">wsgi_multithread</td><td style="vertical-align:top;">:</td><td><div>True</div></td></tr><tr><td style="font-weight:bold;vertical-align:top;">wsgi_run_once</td><td style="vertical-align:top;">:</td><td><div>False</div></td></tr><tr><td style="font-weight:bold;vertical-align:top;">wsgi_url_scheme</td><td style="vertical-align:top;">:</td><td><div>http</div></td></tr><tr><td style="font-weight:bold;vertical-align:top;">wsgi_version</td><td style="vertical-align:top;">:</td><td><div><table><tr><td><div>1</div></td></tr><tr><td><div>0</div></td></tr></table></div></td></tr></table></div></td></tr><tr><td style="font-weight:bold;vertical-align:top;">extension</td><td style="vertical-align:top;">:</td><td><div>html</div></td></tr><tr><td style="font-weight:bold;vertical-align:top;">folder</td><td style="vertical-align:top;">:</td><td><div>D:\\backup servidor\\uli\\web2py\\web2py\\applications\\deteni2\\</div></td></tr><tr><td style="font-weight:bold;vertical-align:top;">function</td><td style="vertical-align:top;">:</td><td><div>deteni2</div></td></tr><tr><td style="font-weight:bold;vertical-align:top;">global_settings</td><td style="vertical-align:top;">:</td><td><div><table><tr><td style="font-weight:bold;vertical-align:top;">app_folders</td><td style="vertical-align:top;">:</td><td><div>set([&#x27;D:\\\\backup servidor\\\\uli\\\\web2py\\\\web2py\\\\applications\\\\calabozo\\\\&#x27;, &#x27;D:\\\\backup servidor\\\\uli\\\\web2py\\\\web2py\\\\applications\\\\deteni2\\\\&#x27;, &#x27;D:\\\\backup servidor\\\\uli\\\\web2py\\\\web2py\\\\applications\\\\admin\\\\&#x27;, &#x27;D:\\\\backup servidor\\\\uli\\\\web2py\\\\web2py\\\\applications\\\\welcome\\\\&#x27;])</div></td></tr><tr><td style="font-weight:bold;vertical-align:top;">applications_parent</td><td style="vertical-align:top;">:</td><td><div>D:\\backup servidor\\uli\\web2py\\web2py</div></td></tr><tr><td style="font-weight:bold;vertical-align:top;">cmd_args</td><td style="vertical-align:top;">:</td><td><div><table></table></div></td></tr><tr><td style="font-weight:bold;vertical-align:top;">cmd_options</td><td style="vertical-align:top;">:</td><td><div>&lt;Values at 0x25a5eb8: {&#x27;verbose&#x27;: False, &#x27;ip&#x27;: &#x27;127.0.0.1&#x27;, &#x27;debuglevel&#x27;: 30, &#x27;with_scheduler&#x27;: False, &#x27;shutdown_timeout&#x27;: 5, &#x27;taskbar&#x27;: False, &#x27;with_coverage&#x27;: False, &#x27;pid_filename&#x27;: &#x27;httpserver.pid&#x27;, &#x27;maxthreads&#x27;: None, &#x27;softcron&#x27;: False, &#x27;server_name&#x27;: &#x27;Policia-PC&#x27;, &#x27;bpython&#x27;: False, &#x27;nogui&#x27;: False, &#x27;port&#x27;: 8000, &#x27;print_errors&#x27;: False, &#x27;extcron&#x27;: False, &#x27;runcron&#x27;: False, &#x27;run_system_tests&#x27;: False, &#x27;test&#x27;: None, &#x27;folder&#x27;: &#x27;D:\\\\backup servidor\\\\uli\\\\web2py\\\\web2py&#x27;, &#x27;config&#x27;: &#x27;&#x27;, &#x27;minthreads&#x27;: None, &#x27;shell&#x27;: None, &#x27;run&#x27;: &#x27;&#x27;, &#x27;log_filename&#x27;: &#x27;httpserver.log&#x27;, &#x27;profiler_dir&#x27;: None, &#x27;args&#x27;: [&#x27;&#x27;], &#x27;socket_timeout&#x27;: 5, &#x27;ssl_ca_certificate&#x27;: None, &#x27;scheduler&#x27;: None, &#x27;interfaces&#x27;: None, &#x27;ssl_private_key&#x27;: &#x27;&#x27;, &#x27;gae&#x27;: None, &#x27;password&#x27;: &#x27;******&#x27;, &#x27;request_queue_size&#x27;: 5, &#x27;ssl_certificate&#x27;: &#x27;&#x27;, &#x27;cronjob&#x27;: False, &#x27;numthreads&#x27;: None, &#x27;quiet&#x27;: False, &#x27;import_models&#x27;: False, &#x27;timeout&#x27;: 10, &#x27;plain&#x27;: False, &#x27;nobanner&#x27;: False}&gt;</div></td></tr><tr><td style="font-weight:bold;vertical-align:top;">db_sessions</td><td style="vertical-align:top;">:</td><td><div>set([])</div></td></tr><tr><td style="font-weight:bold;vertical-align:top;">debugging</td><td style="vertical-align:top;">:</td><td><div>False</div></td></tr><tr><td style="font-weight:bold;vertical-align:top;">gluon_parent</td><td style="vertical-align:top;">:</td><td><div>D:\\backup servidor\\uli\\web2py\\web2py</div></td></tr><tr><td style="font-weight:bold;vertical-align:top;">is_jython</td><td style="vertical-align:top;">:</td><td><div>False</div></td></tr><tr><td style="font-weight:bold;vertical-align:top;">is_pypy</td><td style="vertical-align:top;">:</td><td><div>False</div></td></tr><tr><td style="font-weight:bold;vertical-align:top;">is_source</td><td style="vertical-align:top;">:</td><td><div>False</div></td></tr><tr><td style="font-weight:bold;vertical-align:top;">local_hosts</td><td style="vertical-align:top;">:</td><td><div><table><tr><td><div>fe80::519f:8c80:275f:a5cd%11</div></td></tr><tr><td><div>10.20.0.89</div></td></tr><tr><td><div>::ffff:127.0.0.1</div></td></tr><tr><td><div>::1</div></td></tr><tr><td><div>Policia-PC</div></td></tr><tr><td><div>127.0.0.1</div></td></tr></table></div></td></tr><tr><td style="font-weight:bold;vertical-align:top;">web2py_version</td><td style="vertical-align:top;">:</td><td><div>2.14.6-stable+timestamp.2016.05.10.00.21.47</div></td></tr></table></div></td></tr><tr><td style="font-weight:bold;vertical-align:top;">is_https</td><td style="vertical-align:top;">:</td><td><div>False</div></td></tr><tr><td style="font-weight:bold;vertical-align:top;">is_local</td><td style="vertical-align:top;">:</td><td><div>True</div></td></tr><tr><td style="font-weight:bold;vertical-align:top;">is_restful</td><td style="vertical-align:top;">:</td><td><div>False</div></td></tr><tr><td style="font-weight:bold;vertical-align:top;">is_scheduler</td><td style="vertical-align:top;">:</td><td><div>False</div></td></tr><tr><td style="font-weight:bold;vertical-align:top;">is_shell</td><td style="vertical-align:top;">:</td><td><div>False</div></td></tr><tr><td style="font-weight:bold;vertical-align:top;">now</td><td style="vertical-align:top;">:</td><td><div>datetime.datetime(2017, 1, 22, 10, 38, 45, 511000)</div></td></tr><tr><td style="font-weight:bold;vertical-align:top;">raw_args</td><td style="vertical-align:top;">:</td><td><div>365</div></td></tr><tr><td style="font-weight:bold;vertical-align:top;">raw_extension</td><td style="vertical-align:top;">:</td><td><div>None</div></td></tr><tr><td style="font-weight:bold;vertical-align:top;">url</td><td style="vertical-align:top;">:</td><td><div>/deteni2/default/deteni2/365</div></td></tr><tr><td style="font-weight:bold;vertical-align:top;">utcnow</td><td style="vertical-align:top;">:</td><td><div>datetime.datetime(2017, 1, 22, 13, 38, 45, 511000)</div></td></tr><tr><td style="font-weight:bold;vertical-align:top;">wsgi</td><td style="vertical-align:top;">:</td><td><div>&lt;gluon.main.LazyWSGI object at 0x03B3A250&gt;</div></td></tr></table></div>'
tRp58
sS'frames'
p59
(lp60
(dp61
S'file'
p62
S'D:\\backup servidor\\uli\\web2py\\web2py\\gluon\\restricted.py'
p63
sS'dump'
p64
(dp65
S'environment'
p66
S"{'A': <class 'gluon.html.A'>, 'ANY_OF': <class 'gluon.validators.ANY_OF'>, 'ASSIGNJS': <function ASSIGNJS>, 'AppConfig': <function AppConfig>, 'Auth': <class 'gluon.tools.Auth'>, 'B': <class 'gluon.html.B'>, 'BEAUTIFY': <class 'gluon.html.BEAUTIFY'>, 'BODY': <class 'gluon.html.BODY'>, 'BR': <class 'gluon.html.BR'>, 'BUTTON': <class 'gluon.html.BUTTON'>, ...}"
p67
sS'ccode'
p68
S'<code object <module> at 036650F8, file "D:\\back...ications\\deteni2\\controllers/default.py", line 2>'
p69
ssS'lnum'
p70
I227
sS'lines'
p71
(dp72
I224
S'            ccode = code'
p73
sI225
S'        else:'
p74
sI226
S'            ccode = compile2(code, layer)'
p75
sI227
S'        exec ccode in environment'
p76
sI228
S'    except HTTP:'
p77
sI229
S'        raise'
p78
sI230
S'    except RestrictedError:'
p79
sI231
S'        # do not encapsulate (obfuscate) the original RestrictedError'
p80
sI222
S'    try:'
p81
sI223
S'        if isinstance(code, types.CodeType):'
p82
ssS'call'
p83
S"(code='\\ndef index():\\n    return dict()\\n\\ndef consulta1()...   \\n\\n\\n\\n\\nresponse._vars=response._caller(deteni2)\\n', environment={'A': <class 'gluon.html.A'>, 'ANY_OF': <class 'gluon.validators.ANY_OF'>, 'ASSIGNJS': <function ASSIGNJS>, 'AppConfig': <function AppConfig>, 'Auth': <class 'gluon.tools.Auth'>, 'B': <class 'gluon.html.B'>, 'BEAUTIFY': <class 'gluon.html.BEAUTIFY'>, 'BODY': <class 'gluon.html.BODY'>, 'BR': <class 'gluon.html.BR'>, 'BUTTON': <class 'gluon.html.BUTTON'>, ...}, layer=r'D:\\backup servidor\\uli\\web2py\\web2py\\applications\\deteni2\\controllers/default.py')"
p84
sS'func'
p85
S'restricted'
p86
sa(dp87
g62
S'D:\\backup servidor\\uli\\web2py\\web2py\\applications\\deteni2\\controllers\\default.py'
p88
sg64
(dp89
sg70
I547
sg71
(dp90
I544
S''
sI545
S''
sI536
S''
sI537
S''
sI538
S''
sI539
S''
sI540
S''
sI541
S''
sI542
S''
sI543
S''
ssg83
S'()'
p91
sg85
S'<module>'
p92
sa(dp93
g62
S'D:\\backup servidor\\uli\\web2py\\web2py\\gluon\\globals.py'
p94
sg64
(dp95
S'self'
p96
S'undefined'
p97
sS'f'
S'<function deteni2>'
p98
ssg70
I417
sg71
(dp99
I416
S'        self._vars = None'
p100
sI417
S'        self._caller = lambda f: f()'
p101
sI418
S'        self._view_environment = None'
p102
sI419
S'        self._custom_commit = None'
p103
sI420
S'        self._custom_rollback = None'
p104
sI421
S"        self.generic_patterns = ['*']"
p105
sI412
S"        self.flash = ''            # used by the default view layout"
p106
sI413
S'        self.meta = Storage()      # used by web2py_ajax.html'
p107
sI414
S'        self.menu = []             # used by the default view layout'
p108
sI415
S'        self.files = []            # used by web2py_ajax.html'
p109
ssg83
S'(f=<function deteni2>)'
p110
sg85
S'<lambda>'
p111
sa(dp112
g62
S'D:\\backup servidor\\uli\\web2py\\web2py\\applications\\deteni2\\controllers\\default.py'
p113
sg64
(dp114
S'form.process'
p115
S'<bound method SQLFORM.process of <gluon.sqlhtml.SQLFORM object>>'
p116
sS').accepted'
p117
g97
sS'form'
p118
S'<gluon.sqlhtml.SQLFORM object>'
p119
ssg70
I93
sg71
(dp120
I96
S''
sI97
S''
sI88
S''
sI89
S''
sI90
S''
sI91
S''
sI92
S''
sI93
S'    if form.process().accepted:'
p121
sI94
S''
sI95
S''
ssg83
S'()'
p122
sg85
S'deteni2'
p123
sa(dp124
g62
S'D:\\backup servidor\\uli\\web2py\\web2py\\gluon\\html.py'
p125
sg64
(dp126
S'self'
p127
S'<gluon.sqlhtml.SQLFORM object>'
p128
sS'self.validate'
p129
S'<bound method SQLFORM.validate of <gluon.sqlhtml.SQLFORM object>>'
p130
sS'kwargs'
p131
S"{'dbio': True}"
p132
ssg70
I2298
sg71
(dp133
I2293
S'                return dict(form=SQLFORM(db.table).process(onsuccess=my_callback)'
p134
sI2294
S''
sI2295
S''
sI2296
S'        """'
p135
sI2297
S"        kwargs['dbio'] = kwargs.get('dbio', True)  # necessary for SQLHTML forms"
p136
sI2298
S'        self.validate(**kwargs)'
p137
sI2299
S'        return self'
p138
sI2300
S''
sI2301
S'    REDIRECT_JS = "window.location=\'%s\';return false"'
p139
sI2302
S''
ssg83
S"(self=<gluon.sqlhtml.SQLFORM object>, **kwargs={'dbio': True})"
p140
sg85
S'process'
p141
sa(dp142
g62
S'D:\\backup servidor\\uli\\web2py\\web2py\\gluon\\html.py'
p143
sg64
(dp144
S'self'
p145
S'<gluon.sqlhtml.SQLFORM object>'
p146
sS'self.accepts'
p147
S'<bound method SQLFORM.accepts of <gluon.sqlhtml.SQLFORM object>>'
p148
sS'kwargs'
p149
S"{'dbio': True, 'request_vars': <Storage {'foto': '', 'fecha_naci': '29/01/1978'...: 'deteni2/create', 'domicilio': 'la cueva 123'}>, 'session': <Storage {'last_orderby': None, 'last_query': 'd...errer_web2py_grid': '/deteni2/default/consulta'}>}"
p150
ssg70
I2236
sg71
(dp151
I2240
S'                else:'
p152
sI2231
S"        for key in ('message_onsuccess', 'message_onfailure', 'onsuccess',"
p153
sI2232
S"                    'onfailure', 'next', 'message_onchange', 'onchange'):"
p154
sI2233
S'            if key in kwargs:'
p155
sI2234
S'                del kwargs[key]'
p156
sI2235
S''
sI2236
S'        if self.accepts(**kwargs):'
p157
sI2237
S"            if onsuccess == 'flash':"
p158
sI2238
S'                if next:'
p159
sI2239
S'                    current.session.flash = message_onsuccess'
p160
ssg83
S"(self=<gluon.sqlhtml.SQLFORM object>, **kwargs={'dbio': True, 'request_vars': <Storage {'foto': '', 'fecha_naci': '29/01/1978'...: 'deteni2/create', 'domicilio': 'la cueva 123'}>, 'session': <Storage {'last_orderby': None, 'last_query': 'd...errer_web2py_grid': '/deteni2/default/consulta'}>})"
p161
sg85
S'validate'
p162
sa(dp163
g62
S'D:\\backup servidor\\uli\\web2py\\web2py\\gluon\\sqlhtml.py'
p164
sg64
(dp165
S'kwargs'
p166
g45
ssg70
I1529
sg71
(dp167
I1524
S'            session,'
p168
sI1525
S'            formname,'
p169
sI1526
S'            keepvalues,'
p170
sI1527
S'            onvalidation,'
p171
sI1528
S'            hideerror=hideerror,'
p172
sI1529
S'            **kwargs'
p173
sI1530
S'        )'
p174
sI1531
S''
sI1532
S'        self.deleted = request_vars.get(self.FIELDNAME_REQUEST_DELETE, False)'
p175
sI1533
S''
ssg83
S"(self=<gluon.sqlhtml.SQLFORM object>, request_vars=<Storage {'foto': '', 'fecha_naci': '29/01/1978'...: 'deteni2/create', 'domicilio': 'la cueva 123'}>, session=<Storage {'last_orderby': None, 'last_query': 'd...errer_web2py_grid': '/deteni2/default/consulta'}>, formname='deteni2/create', keepvalues=False, onvalidation=None, dbio=True, hideerror=False, detect_record_change=False, **kwargs={})"
p176
sg85
S'accepts'
p177
sa(dp178
g62
S'D:\\backup servidor\\uli\\web2py\\web2py\\gluon\\html.py'
p179
sg64
(dp180
S'status'
p181
S'True'
p182
sS'self'
p183
S'<gluon.sqlhtml.SQLFORM object>'
p184
sS'self._traverse'
p185
S'<bound method SQLFORM._traverse of <gluon.sqlhtml.SQLFORM object>>'
p186
sS'hideerror'
p187
S'False'
p188
ssg70
I2122
sg71
(dp189
I2117
S'        if status and session:'
p190
sI2118
S'            # check if editing a record that has been modified by the server'
p191
sI2119
S"            if hasattr(self, 'record_hash') and self.record_hash != formkey.split(':')[0]:"
p192
sI2120
S'                status = False'
p193
sI2121
S'                self.record_changed = changed = True'
p194
sI2122
S'        status = self._traverse(status, hideerror)'
p195
sI2123
S'        status = self.assert_status(status, request_vars)'
p196
sI2124
S'        if onvalidation:'
p197
sI2125
S'            if isinstance(onvalidation, dict):'
p198
sI2126
S"                onsuccess = onvalidation.get('onsuccess', None)"
p199
ssg83
S"(self=<gluon.sqlhtml.SQLFORM object>, request_vars=<Storage {'foto': '', 'apellido': 'bony', 'foto_...ad': 'argentino', '_formname': 'deteni2/create'}>, session=<Storage {'last_orderby': None, 'last_query': 'd...errer_web2py_grid': '/deteni2/default/consulta'}>, formname='deteni2/create', keepvalues=False, onvalidation=None, hideerror=False, **kwargs={})"
p200
sg85
g177
sa(dp201
g62
S'D:\\backup servidor\\uli\\web2py\\web2py\\gluon\\html.py'
p202
sg64
(dp203
S'status'
p204
g182
sS'newstatus'
p205
g182
sS'c'
S'<gluon.html.CAT object>'
p206
sS'hideerror'
p207
g188
sS'c._traverse'
p208
S'<bound method CAT._traverse of <gluon.html.CAT object>>'
p209
ssg70
I889
sg71
(dp210
I884
S'                c.latest = self.latest'
p211
sI885
S'                c.session = self.session'
p212
sI886
S'                c.formname = self.formname'
p213
sI887
S"                if not c.attributes.get('hideerror'):"
p214
sI888
S"                    c['hideerror'] = hideerror or self.attributes.get('hideerror')"
p215
sI889
S'                newstatus = c._traverse(status, hideerror) and newstatus'
p216
sI890
S''
sI891
S'        # for input, textarea, select, option'
p217
sI892
S"        # deal with 'value' and 'validation'"
p218
sI893
S''
ssg83
S'(self=<gluon.sqlhtml.SQLFORM object>, status=True, hideerror=False)'
p219
sg85
S'_traverse'
p220
sa(dp221
g62
S'D:\\backup servidor\\uli\\web2py\\web2py\\gluon\\html.py'
p222
sg64
(dp223
S'status'
p224
g182
sS'newstatus'
p225
g188
sS'c'
S'<gluon.html.DIV object>'
p226
sS'hideerror'
p227
g188
sS'c._traverse'
p228
S'<bound method DIV._traverse of <gluon.html.DIV object>>'
p229
ssg70
I889
sg71
(dp230
I884
S'                c.latest = self.latest'
p231
sI885
S'                c.session = self.session'
p232
sI886
S'                c.formname = self.formname'
p233
sI887
S"                if not c.attributes.get('hideerror'):"
p234
sI888
S"                    c['hideerror'] = hideerror or self.attributes.get('hideerror')"
p235
sI889
S'                newstatus = c._traverse(status, hideerror) and newstatus'
p236
sI890
S''
sI891
S'        # for input, textarea, select, option'
p237
sI892
S"        # deal with 'value' and 'validation'"
p238
sI893
S''
ssg83
S'(self=<gluon.html.CAT object>, status=True, hideerror=False)'
p239
sg85
g220
sa(dp240
g62
S'D:\\backup servidor\\uli\\web2py\\web2py\\gluon\\html.py'
p241
sg64
(dp242
S'status'
p243
g182
sS'newstatus'
p244
g182
sS'c'
S'<gluon.html.DIV object>'
p245
sS'hideerror'
p246
g188
sS'c._traverse'
p247
S'<bound method DIV._traverse of <gluon.html.DIV object>>'
p248
ssg70
I889
sg71
(dp249
I884
S'                c.latest = self.latest'
p250
sI885
S'                c.session = self.session'
p251
sI886
S'                c.formname = self.formname'
p252
sI887
S"                if not c.attributes.get('hideerror'):"
p253
sI888
S"                    c['hideerror'] = hideerror or self.attributes.get('hideerror')"
p254
sI889
S'                newstatus = c._traverse(status, hideerror) and newstatus'
p255
sI890
S''
sI891
S'        # for input, textarea, select, option'
p256
sI892
S"        # deal with 'value' and 'validation'"
p257
sI893
S''
ssg83
S'(self=<gluon.html.DIV object>, status=True, hideerror=False)'
p258
sg85
g220
sa(dp259
g62
S'D:\\backup servidor\\uli\\web2py\\web2py\\gluon\\html.py'
p260
sg64
(dp261
S'status'
p262
g182
sS'newstatus'
p263
g182
sS'c'
S'<gluon.html.INPUT object>'
p264
sS'hideerror'
p265
g188
sS'c._traverse'
p266
S'<bound method INPUT._traverse of <gluon.html.INPUT object>>'
p267
ssg70
I889
sg71
(dp268
I884
S'                c.latest = self.latest'
p269
sI885
S'                c.session = self.session'
p270
sI886
S'                c.formname = self.formname'
p271
sI887
S"                if not c.attributes.get('hideerror'):"
p272
sI888
S"                    c['hideerror'] = hideerror or self.attributes.get('hideerror')"
p273
sI889
S'                newstatus = c._traverse(status, hideerror) and newstatus'
p274
sI890
S''
sI891
S'        # for input, textarea, select, option'
p275
sI892
S"        # deal with 'value' and 'validation'"
p276
sI893
S''
ssg83
S'(self=<gluon.html.DIV object>, status=True, hideerror=False)'
p277
sg85
g220
sa(dp278
g62
S'D:\\backup servidor\\uli\\web2py\\web2py\\gluon\\html.py'
p279
sg64
(dp280
S'newstatus'
p281
g182
sS'self'
p282
S'<gluon.html.INPUT object>'
p283
sS'self._validate'
p284
S'<bound method INPUT._validate of <gluon.html.INPUT object>>'
p285
ssg70
I896
sg71
(dp286
I896
S'            newstatus = self._validate()'
p287
sI897
S'            self._postprocessing()'
p288
sI898
S"        elif 'old_value' in self.attributes:"
p289
sI899
S"            self['value'] = self['old_value']"
p290
sI900
S'            self._postprocessing()'
p291
sI891
S'        # for input, textarea, select, option'
p292
sI892
S"        # deal with 'value' and 'validation'"
p293
sI893
S''
sI894
S"        name = self['_name']"
p294
sI895
S'        if newstatus:'
p295
ssg83
S'(self=<gluon.html.INPUT object>, status=True, hideerror=False)'
p296
sg85
g220
sa(dp297
g62
S'D:\\backup servidor\\uli\\web2py\\web2py\\gluon\\html.py'
p298
sg64
(dp299
S'builtinException'
p300
S"<type 'exceptions.Exception'>"
p301
sS'msg'
p302
S'"Validation error, field:foto_perfil <class \'gluon.validators.IS_EMPTY_OR\'>"'
p303
ssg70
I1867
sg71
(dp304
I1862
S'                    (value, errors) = validator(value)'
p305
sI1863
S'                except:'
p306
sI1864
S'                    import traceback'
p307
sI1865
S'                    print traceback.format_exc()'
p308
sI1866
S'                    msg = "Validation error, field:%s %s" % (name,validator)'
p309
sI1867
S'                    raise Exception(msg)'
p310
sI1868
S'                if errors is not None:'
p311
sI1869
S'                    self.vars[name] = value'
p312
sI1870
S'                    self.errors[name] = errors'
p313
sI1871
S'                    break'
p314
ssg83
S'(self=<gluon.html.INPUT object>)'
p315
sg85
S'_validate'
p316
sasS'pyver'
p317
S'Python 2.7.9: D:\\backup servidor\\uli\\web2py\\web2py\\web2py.exe (prefix: C:\\Python27)'
p318
sS'session'
p319
g57
(S's8\x01\x00\x00<div><table><tr><td style="font-weight:bold;vertical-align:top;">last_orderby</td><td style="vertical-align:top;">:</td><td><div>None</div></td></tr><tr><td style="font-weight:bold;vertical-align:top;">last_query</td><td style="vertical-align:top;">:</td><td><div>db.deteni2.id&gt;0</div></td></tr></table></div>'
tRp320
sS'etype'
p321
S"<type 'exceptions.Exception'>"
p322
sS'date'
p323
S'Sun Jan 22 10:38:45 2017'
p324
sS'response'
p325
g57
(S's\xdf?\x00\x00<div><table><tr><td style="font-weight:bold;vertical-align:top;">body</td><td style="vertical-align:top;">:</td><td><div>&lt;cStringIO.StringO object at 0x035F5040&gt;</div></td></tr><tr><td style="font-weight:bold;vertical-align:top;">cookies</td><td style="vertical-align:top;">:</td><td><div><table><tr><td style="font-weight:bold;vertical-align:top;">session_id_deteni2</td><td style="vertical-align:top;">:</td><td><div>127.0.0.1-8d0bd818-b57e-4b3a-9637-24e51a516584<table><tr><td style="font-weight:bold;vertical-align:top;">comment</td><td style="vertical-align:top;">:</td><td><div></div></td></tr><tr><td style="font-weight:bold;vertical-align:top;">domain</td><td style="vertical-align:top;">:</td><td><div></div></td></tr><tr><td style="font-weight:bold;vertical-align:top;">expires</td><td style="vertical-align:top;">:</td><td><div></div></td></tr><tr><td style="font-weight:bold;vertical-align:top;">httponly</td><td style="vertical-align:top;">:</td><td><div></div></td></tr><tr><td style="font-weight:bold;vertical-align:top;">max-age</td><td style="vertical-align:top;">:</td><td><div></div></td></tr><tr><td style="font-weight:bold;vertical-align:top;">path</td><td style="vertical-align:top;">:</td><td><div>/</div></td></tr><tr><td style="font-weight:bold;vertical-align:top;">secure</td><td style="vertical-align:top;">:</td><td><div></div></td></tr><tr><td style="font-weight:bold;vertical-align:top;">version</td><td style="vertical-align:top;">:</td><td><div></div></td></tr></table></div></td></tr></table></div></td></tr><tr><td style="font-weight:bold;vertical-align:top;">delimiters</td><td style="vertical-align:top;">:</td><td><div><table><tr><td><div>{{</div></td></tr><tr><td><div>}}</div></td></tr></table></div></td></tr><tr><td style="font-weight:bold;vertical-align:top;">files</td><td style="vertical-align:top;">:</td><td><div><table></table></div></td></tr><tr><td style="font-weight:bold;vertical-align:top;">flash</td><td style="vertical-align:top;">:</td><td><div></div></td></tr><tr><td style="font-weight:bold;vertical-align:top;">form_label_separator</td><td style="vertical-align:top;">:</td><td><div></div></td></tr><tr><td style="font-weight:bold;vertical-align:top;">formstyle</td><td style="vertical-align:top;">:</td><td><div>bootstrap3_inline</div></td></tr><tr><td style="font-weight:bold;vertical-align:top;">generic_patterns</td><td style="vertical-align:top;">:</td><td><div><table><tr><td><div>*</div></td></tr></table></div></td></tr><tr><td style="font-weight:bold;vertical-align:top;">google_analytics_id</td><td style="vertical-align:top;">:</td><td><div>None</div></td></tr><tr><td style="font-weight:bold;vertical-align:top;">headers</td><td style="vertical-align:top;">:</td><td><div><table><tr><td style="font-weight:bold;vertical-align:top;">X-Powered-By</td><td style="vertical-align:top;">:</td><td><div>web2py</div></td></tr></table></div></td></tr><tr><td style="font-weight:bold;vertical-align:top;">logo</td><td style="vertical-align:top;">:</td><td><div><a class="navbar-brand" href="http://www.web2py.com/" id="web2py-logo"><b>web<span>2</span>py</b>&trade;&nbsp;</a></div></td></tr><tr><td style="font-weight:bold;vertical-align:top;">menu</td><td style="vertical-align:top;">:</td><td><div><table><tr><td><div><table><tr><td><div>Inicio</div></td></tr><tr><td><div>False</div></td></tr><tr><td><div>/deteni2/default/index</div></td></tr><tr><td><div><table></table></div></td></tr></table></div></td></tr><tr><td><div><table><tr><td><div>Mis Sitios</div></td></tr><tr><td><div>False</div></td></tr><tr><td><div>/admin/default/site</div></td></tr></table></div></td></tr><tr><td><div><table><tr><td><div>Esta Aplicaci\xc3\xb3n</div></td></tr><tr><td><div>False</div></td></tr><tr><td><div>#</div></td></tr><tr><td><div><table><tr><td><div><table><tr><td><div>Design</div></td></tr><tr><td><div>False</div></td></tr><tr><td><div>/admin/default/design/deteni2</div></td></tr></table></div></td></tr><tr><td><div><li class="divider"></li></div></td></tr><tr><td><div><table><tr><td><div>Controlador</div></td></tr><tr><td><div>False</div></td></tr><tr><td><div>/admin/default/edit/deteni2/controllers/default.py</div></td></tr></table></div></td></tr><tr><td><div><table><tr><td><div>Vista</div></td></tr><tr><td><div>False</div></td></tr><tr><td><div>/admin/default/edit/deteni2/views/default/deteni2.html</div></td></tr></table></div></td></tr><tr><td><div><table><tr><td><div>Modelo BDD</div></td></tr><tr><td><div>False</div></td></tr><tr><td><div>/admin/default/edit/deteni2/models/db.py</div></td></tr></table></div></td></tr><tr><td><div><table><tr><td><div>Modelo "menu"</div></td></tr><tr><td><div>False</div></td></tr><tr><td><div>/admin/default/edit/deteni2/models/menu.py</div></td></tr></table></div></td></tr><tr><td><div><table><tr><td><div>Config.ini</div></td></tr><tr><td><div>False</div></td></tr><tr><td><div>/admin/default/edit/deteni2/private/appconfig.ini</div></td></tr></table></div></td></tr><tr><td><div><table><tr><td><div>Dise\xc3\xb1o de p\xc3\xa1gina</div></td></tr><tr><td><div>False</div></td></tr><tr><td><div>/admin/default/edit/deteni2/views/layout.html</div></td></tr></table></div></td></tr><tr><td><div><table><tr><td><div>Hoja de estilo</div></td></tr><tr><td><div>False</div></td></tr><tr><td><div>/admin/default/edit/deteni2/static/css/web2py-bootstrap3.css</div></td></tr></table></div></td></tr><tr><td><div><table><tr><td><div>Base de datos</div></td></tr><tr><td><div>False</div></td></tr><tr><td><div>/deteni2/appadmin/index</div></td></tr></table></div></td></tr><tr><td><div><table><tr><td><div>Errores</div></td></tr><tr><td><div>False</div></td></tr><tr><td><div>/admin/default/errors/deteni2</div></td></tr></table></div></td></tr><tr><td><div><table><tr><td><div>Acerca de</div></td></tr><tr><td><div>False</div></td></tr><tr><td><div>/admin/default/about/deteni2</div></td></tr></table></div></td></tr></table></div></td></tr></table></div></td></tr><tr><td><div><table><tr><td><div>web2py.com</div></td></tr><tr><td><div>False</div></td></tr><tr><td><div>#</div></td></tr><tr><td><div><table><tr><td><div><table><tr><td><div>Descargas</div></td></tr><tr><td><div>False</div></td></tr><tr><td><div>http://www.web2py.com/examples/default/download</div></td></tr></table></div></td></tr><tr><td><div><table><tr><td><div>Soporte</div></td></tr><tr><td><div>False</div></td></tr><tr><td><div>http://www.web2py.com/examples/default/support</div></td></tr></table></div></td></tr><tr><td><div><table><tr><td><div>Demostraci\xc3\xb3n</div></td></tr><tr><td><div>False</div></td></tr><tr><td><div>http://web2py.com/demo_admin</div></td></tr></table></div></td></tr><tr><td><div><table><tr><td><div>Ejemplos R\xc3\xa1pidos</div></td></tr><tr><td><div>False</div></td></tr><tr><td><div>http://web2py.com/examples/default/examples</div></td></tr></table></div></td></tr><tr><td><div><table><tr><td><div>FAQ</div></td></tr><tr><td><div>False</div></td></tr><tr><td><div>http://web2py.com/AlterEgo</div></td></tr></table></div></td></tr><tr><td><div><table><tr><td><div>V\xc3\xaddeos</div></td></tr><tr><td><div>False</div></td></tr><tr><td><div>http://www.web2py.com/examples/default/videos/</div></td></tr></table></div></td></tr><tr><td><div><table><tr><td><div>Aplicaciones Libres</div></td></tr><tr><td><div>False</div></td></tr><tr><td><div>http://web2py.com/appliances</div></td></tr></table></div></td></tr><tr><td><div><table><tr><td><div>Plugins</div></td></tr><tr><td><div>False</div></td></tr><tr><td><div>http://web2py.com/plugins</div></td></tr></table></div></td></tr><tr><td><div><table><tr><td><div>Recetas</div></td></tr><tr><td><div>False</div></td></tr><tr><td><div>http://web2pyslices.com/</div></td></tr></table></div></td></tr></table></div></td></tr></table></div></td></tr><tr><td><div><table><tr><td><div>Documentaci\xc3\xb3n</div></td></tr><tr><td><div>False</div></td></tr><tr><td><div>#</div></td></tr><tr><td><div><table><tr><td><div><table><tr><td><div>Online book</div></td></tr><tr><td><div>False</div></td></tr><tr><td><div>http://www.web2py.com/book</div></td></tr></table></div></td></tr><tr><td><div><li class="divider"></li></div></td></tr><tr><td><div><table><tr><td><div>Prefacio</div></td></tr><tr><td><div>False</div></td></tr><tr><td><div>http://www.web2py.com/book/default/chapter/00</div></td></tr></table></div></td></tr><tr><td><div><table><tr><td><div>Introducci\xc3\xb3n</div></td></tr><tr><td><div>False</div></td></tr><tr><td><div>http://www.web2py.com/book/default/chapter/01</div></td></tr></table></div></td></tr><tr><td><div><table><tr><td><div>Python</div></td></tr><tr><td><div>False</div></td></tr><tr><td><div>http://www.web2py.com/book/default/chapter/02</div></td></tr></table></div></td></tr><tr><td><div><table><tr><td><div>Resumen</div></td></tr><tr><td><div>False</div></td></tr><tr><td><div>http://www.web2py.com/book/default/chapter/03</div></td></tr></table></div></td></tr><tr><td><div><table><tr><td><div>El N\xc3\xbacleo</div></td></tr><tr><td><div>False</div></td></tr><tr><td><div>http://www.web2py.com/book/default/chapter/04</div></td></tr></table></div></td></tr><tr><td><div><table><tr><td><div>Las Vistas</div></td></tr><tr><td><div>False</div></td></tr><tr><td><div>http://www.web2py.com/book/default/chapter/05</div></td></tr></table></div></td></tr><tr><td><div><table><tr><td><div>Base de datos</div></td></tr><tr><td><div>False</div></td></tr><tr><td><div>http://www.web2py.com/book/default/chapter/06</div></td></tr></table></div></td></tr><tr><td><div><table><tr><td><div>Formularios y validadores</div></td></tr><tr><td><div>False</div></td></tr><tr><td><div>http://www.web2py.com/book/default/chapter/07</div></td></tr></table></div></td></tr><tr><td><div><table><tr><td><div>Correo electr\xc3\xb3nico y SMS</div></td></tr><tr><td><div>False</div></td></tr><tr><td><div>http://www.web2py.com/book/default/chapter/08</div></td></tr></table></div></td></tr><tr><td><div><table><tr><td><div>Control de Acceso</div></td></tr><tr><td><div>False</div></td></tr><tr><td><div>http://www.web2py.com/book/default/chapter/09</div></td></tr></table></div></td></tr><tr><td><div><table><tr><td><div>Servicios</div></td></tr><tr><td><div>False</div></td></tr><tr><td><div>http://www.web2py.com/book/default/chapter/10</div></td></tr></table></div></td></tr><tr><td><div><table><tr><td><div>Recetas AJAX</div></td></tr><tr><td><div>False</div></td></tr><tr><td><div>http://www.web2py.com/book/default/chapter/11</div></td></tr></table></div></td></tr><tr><td><div><table><tr><td><div>Componentes y Plugins</div></td></tr><tr><td><div>False</div></td></tr><tr><td><div>http://www.web2py.com/book/default/chapter/12</div></td></tr></table></div></td></tr><tr><td><div><table><tr><td><div>Recetas de despliegue</div></td></tr><tr><td><div>False</div></td></tr><tr><td><div>http://www.web2py.com/book/default/chapter/13</div></td></tr></table></div></td></tr><tr><td><div><table><tr><td><div>Otras Recetas</div></td></tr><tr><td><div>False</div></td></tr><tr><td><div>http://www.web2py.com/book/default/chapter/14</div></td></tr></table></div></td></tr><tr><td><div><table><tr><td><div>Helping web2py</div></td></tr><tr><td><div>False</div></td></tr><tr><td><div>http://www.web2py.com/book/default/chapter/15</div></td></tr></table></div></td></tr><tr><td><div><table><tr><td><div>Buy web2py\'s book</div></td></tr><tr><td><div>False</div></td></tr><tr><td><div>http://stores.lulu.com/web2py</div></td></tr></table></div></td></tr></table></div></td></tr></table></div></td></tr><tr><td><div><table><tr><td><div>Comunidad</div></td></tr><tr><td><div>False</div></td></tr><tr><td><div>None</div></td></tr><tr><td><div><table><tr><td><div><table><tr><td><div>Grupos</div></td></tr><tr><td><div>False</div></td></tr><tr><td><div>http://www.web2py.com/examples/default/usergroups</div></td></tr></table></div></td></tr><tr><td><div><table><tr><td><div>Twitter</div></td></tr><tr><td><div>False</div></td></tr><tr><td><div>http://twitter.com/web2py</div></td></tr></table></div></td></tr><tr><td><div><table><tr><td><div>Chat en vivo</div></td></tr><tr><td><div>False</div></td></tr><tr><td><div>http://webchat.freenode.net/?channels=web2py</div></td></tr></table></div></td></tr></table></div></td></tr></table></div></td></tr></table></div></td></tr><tr><td style="font-weight:bold;vertical-align:top;">meta</td><td style="vertical-align:top;">:</td><td><div><table><tr><td style="font-weight:bold;vertical-align:top;">author</td><td style="vertical-align:top;">:</td><td><div>Your Name &lt;you@example.com&gt;</div></td></tr><tr><td style="font-weight:bold;vertical-align:top;">description</td><td style="vertical-align:top;">:</td><td><div>a cool new app</div></td></tr><tr><td style="font-weight:bold;vertical-align:top;">generator</td><td style="vertical-align:top;">:</td><td><div>Web2py Web Framework</div></td></tr><tr><td style="font-weight:bold;vertical-align:top;">keywords</td><td style="vertical-align:top;">:</td><td><div><table><tr><td><div>web2py</div></td></tr><tr><td><div>python</div></td></tr><tr><td><div>framework</div></td></tr></table></div></td></tr></table></div></td></tr><tr><td style="font-weight:bold;vertical-align:top;">models_to_run</td><td style="vertical-align:top;">:</td><td><div><table><tr><td><div>^\\w+\\.py$</div></td></tr><tr><td><div>^default/\\w+\\.py$</div></td></tr><tr><td><div>^default/deteni2/\\w+\\.py$</div></td></tr></table></div></td></tr><tr><td style="font-weight:bold;vertical-align:top;">postprocessing</td><td style="vertical-align:top;">:</td><td><div><table></table></div></td></tr><tr><td style="font-weight:bold;vertical-align:top;">session_client</td><td style="vertical-align:top;">:</td><td><div>127.0.0.1</div></td></tr><tr><td style="font-weight:bold;vertical-align:top;">session_cookie_compression_level</td><td style="vertical-align:top;">:</td><td><div>None</div></td></tr><tr><td style="font-weight:bold;vertical-align:top;">session_cookie_expires</td><td style="vertical-align:top;">:</td><td><div>None</div></td></tr><tr><td style="font-weight:bold;vertical-align:top;">session_data_name</td><td style="vertical-align:top;">:</td><td><div>session_data_deteni2</div></td></tr><tr><td style="font-weight:bold;vertical-align:top;">session_file</td><td style="vertical-align:top;">:</td><td><div>&lt;open file &#x27;D:\\\\backup servidor\\\\uli\\\\web2py\\\\web2py\\\\applications\\\\deteni2\\\\sessions\\\\0e1\\\\092\\\\127.0.0.1-8d0bd818-b57e-4b3a-9637-24e51a516584&#x27;, mode &#x27;rb+&#x27; at 0x0749BEE8&gt;</div></td></tr><tr><td style="font-weight:bold;vertical-align:top;">session_filename</td><td style="vertical-align:top;">:</td><td><div>D:\\backup servidor\\uli\\web2py\\web2py\\applications\\deteni2\\sessions\\127.0.0.1-8d0bd818-b57e-4b3a-9637-24e51a516584</div></td></tr><tr><td style="font-weight:bold;vertical-align:top;">session_hash</td><td style="vertical-align:top;">:</td><td><div>249202a850ed70a0c368678419fdeb89</div></td></tr><tr><td style="font-weight:bold;vertical-align:top;">session_id</td><td style="vertical-align:top;">:</td><td><div>127.0.0.1-8d0bd818-b57e-4b3a-9637-24e51a516584</div></td></tr><tr><td style="font-weight:bold;vertical-align:top;">session_id_name</td><td style="vertical-align:top;">:</td><td><div>session_id_deteni2</div></td></tr><tr><td style="font-weight:bold;vertical-align:top;">session_locked</td><td style="vertical-align:top;">:</td><td><div>True</div></td></tr><tr><td style="font-weight:bold;vertical-align:top;">session_masterapp</td><td style="vertical-align:top;">:</td><td><div>deteni2</div></td></tr><tr><td style="font-weight:bold;vertical-align:top;">session_new</td><td style="vertical-align:top;">:</td><td><div>False</div></td></tr><tr><td style="font-weight:bold;vertical-align:top;">session_storage_type</td><td style="vertical-align:top;">:</td><td><div>file</div></td></tr><tr><td style="font-weight:bold;vertical-align:top;">status</td><td style="vertical-align:top;">:</td><td><div>200</div></td></tr><tr><td style="font-weight:bold;vertical-align:top;">subtitle</td><td style="vertical-align:top;">:</td><td><div></div></td></tr><tr><td style="font-weight:bold;vertical-align:top;">title</td><td style="vertical-align:top;">:</td><td><div>Deteni2</div></td></tr><tr><td style="font-weight:bold;vertical-align:top;">view</td><td style="vertical-align:top;">:</td><td><div>default/deteni2.html</div></td></tr></table></div>'
tRp326
sS'locals'
p327
(dp328
S'name'
p329
S"'foto_perfil'"
p330
sS'k'
S'0'
sS'traceback'
p331
S"<module 'traceback' from 'D:\\backup servidor\\uli\\web2py\\web2py\\library.zip\\traceback.pyc'>"
p332
sS'value'
p333
S"''"
p334
sS'validator'
p335
S"<class 'gluon.validators.IS_EMPTY_OR'>"
p336
sS'msg'
p337
S'"Validation error, field:foto_perfil <class \'gluon.validators.IS_EMPTY_OR\'>"'
p338
sS'request_vars_get'
p339
S'<built-in method get of Storage object>'
p340
sS'requires'
p341
S"[<class 'gluon.validators.IS_EMPTY_OR'>, <gluon.validators.IS_IMAGE object>]"
p342
sS'self'
p343
S'<gluon.html.INPUT object>'
p344
sssg331
S'Traceback (most recent call last):\n  File "D:\\backup servidor\\uli\\web2py\\web2py\\gluon\\restricted.py", line 227, in restricted\n    exec ccode in environment\n  File "D:\\backup servidor\\uli\\web2py\\web2py\\applications\\deteni2\\controllers/default.py", line 547, in <module>\n  File "D:\\backup servidor\\uli\\web2py\\web2py\\gluon\\globals.py", line 417, in <lambda>\n    self._caller = lambda f: f()\n  File "D:\\backup servidor\\uli\\web2py\\web2py\\applications\\deteni2\\controllers/default.py", line 93, in deteni2\n    if form.process().accepted:\n  File "D:\\backup servidor\\uli\\web2py\\web2py\\gluon\\html.py", line 2298, in process\n    self.validate(**kwargs)\n  File "D:\\backup servidor\\uli\\web2py\\web2py\\gluon\\html.py", line 2236, in validate\n    if self.accepts(**kwargs):\n  File "D:\\backup servidor\\uli\\web2py\\web2py\\gluon\\sqlhtml.py", line 1529, in accepts\n    **kwargs\n  File "D:\\backup servidor\\uli\\web2py\\web2py\\gluon\\html.py", line 2122, in accepts\n    status = self._traverse(status, hideerror)\n  File "D:\\backup servidor\\uli\\web2py\\web2py\\gluon\\html.py", line 889, in _traverse\n    newstatus = c._traverse(status, hideerror) and newstatus\n  File "D:\\backup servidor\\uli\\web2py\\web2py\\gluon\\html.py", line 889, in _traverse\n    newstatus = c._traverse(status, hideerror) and newstatus\n  File "D:\\backup servidor\\uli\\web2py\\web2py\\gluon\\html.py", line 889, in _traverse\n    newstatus = c._traverse(status, hideerror) and newstatus\n  File "D:\\backup servidor\\uli\\web2py\\web2py\\gluon\\html.py", line 889, in _traverse\n    newstatus = c._traverse(status, hideerror) and newstatus\n  File "D:\\backup servidor\\uli\\web2py\\web2py\\gluon\\html.py", line 896, in _traverse\n    newstatus = self._validate()\n  File "D:\\backup servidor\\uli\\web2py\\web2py\\gluon\\html.py", line 1867, in _validate\n    raise Exception(msg)\nException: Validation error, field:foto_perfil <class \'gluon.validators.IS_EMPTY_OR\'>\n'
p345
s.